(S'1ba9d45a54ed0293e78ec1be49eea232'
p1
(ihappydoclib.parseinfo.moduleinfo
ModuleInfo
p2
(dp3
S'_namespaces'
p4
((dp5
(dp6
S'tokenize'
p7
(ihappydoclib.parseinfo.functioninfo
FunctionInfo
p8
(dp9
g4
((dp10
(dp11
tp12
sS'_exception_info'
p13
(dp14
sS'_parameter_names'
p15
(S's'
S'handler'
p16
tp17
sS'_parameter_info'
p18
(dp19
S's'
(NNNtp20
sg16
(I1
S'Handler.TokenHandler()'
Ntp21
ssS'_filename'
p22
S'../python/frowns/smiles_parsers/Smarts.py'
p23
sS'_docstring'
p24
S''
sS'_name'
p25
g7
sS'_parent'
p26
g2
sS'_comment_info'
p27
(dp28
sS'_configuration_values'
p29
(dp30
sS'_class_info'
p31
g10
sS'_function_info'
p32
g11
sS'_comments'
p33
S''
sbstp34
sS'_import_info'
p35
(ihappydoclib.parseinfo.imports
ImportInfo
p36
(dp37
S'_named_imports'
p38
(dp39
sS'_straight_imports'
p40
(lp41
S'string'
p42
aS're'
p43
aS'Handler'
p44
asbsg22
g23
sg24
S''
sg25
S'Smarts'
p45
sg26
Nsg27
g28
sg29
(dp46
S'include_comments'
p47
I1
sS'cacheFilePrefix'
p48
S'.happydoc.'
p49
sS'useCache'
p50
I1
sS'docStringFormat'
p51
S'StructuredText'
p52
ssg31
g5
sg32
g6
sg33
S''
sbt.