(S'e8af5c6a8544ba3784857e3b579ee76b'
p1
(ihappydoclib.parseinfo.moduleinfo
ModuleInfo
p2
(dp3
S'_namespaces'
p4
((dp5
(dp6
S'tokenize'
p7
(ihappydoclib.parseinfo.functioninfo
FunctionInfo
p8
(dp9
g4
((dp10
(dp11
tp12
sS'_exception_info'
p13
(dp14
sS'_parameter_names'
p15
(S's'
S'handler'
p16
tp17
sS'_parameter_info'
p18
(dp19
S's'
(NNNtp20
sg16
(I1
S'Handler.TokenHandler()'
Ntp21
ssS'_filename'
p22
S'../python/frowns/smiles_parsers/Smiles.py'
p23
sS'_docstring'
p24
S''
sS'_name'
p25
g7
sS'_parent'
p26
g2
sS'_comment_info'
p27
(dp28
(S'tokenize'
tp29
S' Parse a SMILES string and print the events found\n'
p30
ssS'_configuration_values'
p31
(dp32
sS'_class_info'
p33
g10
sS'_function_info'
p34
g11
sS'_comments'
p35
g30
sbstp36
sS'_import_info'
p37
(ihappydoclib.parseinfo.imports
ImportInfo
p38
(dp39
S'_named_imports'
p40
(dp41
sS'_straight_imports'
p42
(lp43
S're'
p44
aS'string'
p45
aS'Handler'
p46
asbsg22
g23
sg24
S''
sg25
S'Smiles'
p47
sg26
Nsg27
g28
sg31
(dp48
S'include_comments'
p49
I1
sS'cacheFilePrefix'
p50
S'.happydoc.'
p51
sS'useCache'
p52
I1
sS'docStringFormat'
p53
S'StructuredText'
p54
ssg33
g5
sg34
g6
sg35
S''
sbt.