(S'5c7810eef1d4c0579ea15a78dccd6485'
p1
(ihappydoclib.parseinfo.moduleinfo
ModuleInfo
p2
(dp3
S'_namespaces'
p4
((dp5
(dp6
S'make_re_pattern'
p7
(ihappydoclib.parseinfo.functioninfo
FunctionInfo
p8
(dp9
g4
((dp10
(dp11
tp12
sS'_exception_info'
p13
(dp14
sS'_parameter_names'
p15
(S'symbols'
p16
tp17
sS'_parameter_info'
p18
(dp19
g16
(NNNtp20
ssS'_filename'
p21
S'../python/frowns/smiles_parsers/verify.py'
p22
sS'_docstring'
p23
S''
sS'_name'
p24
g7
sS'_parent'
p25
g2
sS'_comment_info'
p26
(dp27
sS'_configuration_values'
p28
(dp29
sS'_class_info'
p30
g10
sS'_function_info'
p31
g11
sS'_comments'
p32
S''
sbsS'_special_order_cmp'
p33
(ihappydoclib.parseinfo.functioninfo
FunctionInfo
p34
(dp35
g4
((dp36
(dp37
tp38
sg13
(dp39
sg15
(S'a'
S'b'
tp40
sg18
(dp41
S'a'
(NNNtp42
sS'b'
(NNNtp43
ssg21
g22
sg23
S''
sg24
g33
sg25
g2
sg26
g27
sg28
(dp44
sg30
g36
sg31
g37
sg32
S''
sbstp45
sS'_import_info'
p46
(ihappydoclib.parseinfo.imports
ImportInfo
p47
(dp48
S'_named_imports'
p49
(dp50
sS'_straight_imports'
p51
(lp52
S'string'
p53
aS're'
p54
asbsg21
g22
sg23
S''
sg24
S'verify'
p55
sg25
Nsg26
g27
sg28
(dp56
S'include_comments'
p57
I1
sS'cacheFilePrefix'
p58
S'.happydoc.'
p59
sS'useCache'
p60
I1
sS'docStringFormat'
p61
S'StructuredText'
p62
ssg30
g5
sg31
g6
sg32
S''
sbt.