(S'de2a70d1a77897f13c6904e4e2003ac1'
p1
(ihappydoclib.parseinfo.moduleinfo
ModuleInfo
p2
(dp3
S'_namespaces'
p4
((dp5
S'SilentErrors'
p6
(ihappydoclib.parseinfo.classinfo
ClassInfo
p7
(dp8
g4
((dp9
(dp10
S'error'
p11
(ihappydoclib.parseinfo.functioninfo
FunctionInfo
p12
(dp13
g4
((dp14
(dp15
tp16
sS'_exception_info'
p17
(dp18
sS'_parameter_names'
p19
(S'self'
p20
S'errmsg'
p21
S'pos'
p22
S'text'
p23
tp24
sS'_parameter_info'
p25
(dp26
g23
(NNNtp27
sg20
(NNNtp28
sg22
(NNNtp29
sg21
(NNNtp30
ssS'_filename'
p31
S'../python/frowns/smiles_parsers/Handler.py'
p32
sS'_docstring'
p33
S''
sS'_name'
p34
g11
sS'_parent'
p35
g7
sS'_comment_info'
p36
(dp37
(S'SilentErrors'
tp38
S' A mixin class\n'
p39
ssS'_configuration_values'
p40
(dp41
sS'_class_info'
p42
g14
sS'_function_info'
p43
g15
sS'_comments'
p44
S''
sbstp45
sg31
g32
sg33
S''
sS'_class_member_info'
p46
(lp47
sg34
g6
sg35
g2
sg36
g37
sS'_base_class_info'
p48
(lp49
sg40
(dp50
sg42
g9
sg43
g10
sg44
g39
sbsS'SaveTokens'
p51
(ihappydoclib.parseinfo.classinfo
ClassInfo
p52
(dp53
g4
((dp54
(dp55
S'begin'
p56
(ihappydoclib.parseinfo.functioninfo
FunctionInfo
p57
(dp58
g4
((dp59
(dp60
tp61
sg17
(dp62
sg19
(S'self'
p63
tp64
sg25
(dp65
g63
(NNNtp66
ssg31
g32
sg33
S''
sg34
g56
sg35
g52
sg36
g37
sg40
(dp67
sg42
g59
sg43
g60
sg44
S''
sbsS'add_token'
p68
(ihappydoclib.parseinfo.functioninfo
FunctionInfo
p69
(dp70
g4
((dp71
(dp72
tp73
sg17
(dp74
sg19
(S'self'
p75
S'name'
p76
S'pos'
p77
S'text'
p78
tp79
sg25
(dp80
g78
(NNNtp81
sg75
(NNNtp82
sg76
(NNNtp83
sg77
(NNNtp84
ssg31
g32
sg33
S''
sg34
g68
sg35
g52
sg36
g37
sg40
(dp85
sg42
g71
sg43
g72
sg44
S''
sbstp86
sg31
g32
sg33
S''
sg46
(lp87
sg34
g51
sg35
g2
sg36
g37
sg48
(lp88
S'TokenHandler'
p89
aS'UserList.UserList'
p90
asg40
(dp91
sg42
g54
sg43
g55
sg44
S''
sbsS'TokenHandler'
p92
(ihappydoclib.parseinfo.classinfo
ClassInfo
p93
(dp94
g4
((dp95
(dp96
S'begin'
p97
(ihappydoclib.parseinfo.functioninfo
FunctionInfo
p98
(dp99
g4
((dp100
(dp101
tp102
sg17
(dp103
sg19
(S'self'
p104
tp105
sg25
(dp106
g104
(NNNtp107
ssg31
g32
sg33
S'Called before any other callbacks'
p108
sg34
g97
sg35
g93
sg36
g37
sg40
(dp109
sg42
g100
sg43
g101
sg44
S''
sbsS'end'
p110
(ihappydoclib.parseinfo.functioninfo
FunctionInfo
p111
(dp112
g4
((dp113
(dp114
tp115
sg17
(dp116
sg19
(S'self'
p117
tp118
sg25
(dp119
g117
(NNNtp120
ssg31
g32
sg33
S''
sg34
g110
sg35
g93
sg36
g37
sg40
(dp121
sg42
g113
sg43
g114
sg44
S''
sbsS'add_token'
p122
(ihappydoclib.parseinfo.functioninfo
FunctionInfo
p123
(dp124
g4
((dp125
(dp126
tp127
sg17
(dp128
sg19
(S'self'
p129
S'name'
p130
S'pos'
p131
S'text'
p132
tp133
sg25
(dp134
g132
(NNNtp135
sg129
(NNNtp136
sg130
(NNNtp137
sg131
(NNNtp138
ssg31
g32
sg33
S'Called for each token; state name, character position, token text'
p139
sg34
g122
sg35
g93
sg36
g37
sg40
(dp140
sg42
g125
sg43
g126
sg44
S''
sbsS'error'
p141
(ihappydoclib.parseinfo.functioninfo
FunctionInfo
p142
(dp143
g4
((dp144
(dp145
tp146
sg17
(dp147
S'"%s at position %d: %s" %(errmsg, pos, repr( text ) )'
p148
Nssg19
(S'self'
p149
S'errmsg'
p150
S'pos'
p151
S'text'
p152
tp153
sg25
(dp154
g152
(NNNtp155
sg149
(NNNtp156
sg151
(NNNtp157
sg150
(NNNtp158
ssg31
g32
sg33
S'Called when an parse error occurs; error position, unparsed text'
p159
sg34
g141
sg35
g93
sg36
g37
sg40
(dp160
sg42
g144
sg43
g145
sg44
S''
sbstp161
sg31
g32
sg33
S''
sg46
(lp162
sg34
g92
sg35
g2
sg36
g37
sg48
(lp163
sg40
(dp164
sg42
g95
sg43
g96
sg44
S''
sbsS'WriteHandler'
p165
(ihappydoclib.parseinfo.classinfo
ClassInfo
p166
(dp167
g4
((dp168
(dp169
S'add_token'
p170
(ihappydoclib.parseinfo.functioninfo
FunctionInfo
p171
(dp172
g4
((dp173
(dp174
tp175
sg17
(dp176
sg19
(S'self'
p177
S'name'
p178
S'pos'
p179
S'text'
p180
tp181
sg25
(dp182
g180
(NNNtp183
sg177
(NNNtp184
sg178
(NNNtp185
sg179
(NNNtp186
ssg31
g32
sg33
S''
sg34
g170
sg35
g166
sg36
g37
sg40
(dp187
sg42
g173
sg43
g174
sg44
S''
sbsS'__init__'
p188
(ihappydoclib.parseinfo.functioninfo
FunctionInfo
p189
(dp190
g4
((dp191
(dp192
tp193
sg17
(dp194
sg19
(S'self'
p195
S'outfile'
p196
tp197
sg25
(dp198
g196
(I1
S'sys.stdout'
Ntp199
sg195
(NNNtp200
ssg31
g32
sg33
S''
sg34
g188
sg35
g166
sg36
g37
sg40
(dp201
sg42
g191
sg43
g192
sg44
S''
sbstp202
sg31
g32
sg33
S''
sg46
(lp203
sg34
g165
sg35
g2
sg36
g37
sg48
(lp204
S'TokenHandler'
p205
asg40
(dp206
sg42
g168
sg43
g169
sg44
S''
sbs(dp207
tp208
sS'_import_info'
p209
(ihappydoclib.parseinfo.imports
ImportInfo
p210
(dp211
S'_named_imports'
p212
(dp213
sS'_straight_imports'
p214
(lp215
S'UserList'
p216
aS'sys'
p217
asbsg31
g32
sg33
S''
sg34
S'Handler'
p218
sg35
Nsg36
g37
sg40
(dp219
S'include_comments'
p220
I1
sS'cacheFilePrefix'
p221
S'.happydoc.'
p222
sS'useCache'
p223
I1
sS'docStringFormat'
p224
S'StructuredText'
p225
ssg42
g5
sg43
g207
sg44
S''
sbt.