(S'31d7f6516f37844844fbd74d3b48e901'
p1
(ihappydoclib.parseinfo.moduleinfo
ModuleInfo
p2
(dp3
S'_namespaces'
p4
((dp5
S'Element'
p6
(ihappydoclib.parseinfo.classinfo
ClassInfo
p7
(dp8
g4
((dp9
(dp10
S'__repr__'
p11
(ihappydoclib.parseinfo.functioninfo
FunctionInfo
p12
(dp13
g4
((dp14
(dp15
tp16
sS'_exception_info'
p17
(dp18
sS'_parameter_names'
p19
(S'self'
p20
tp21
sS'_parameter_info'
p22
(dp23
g20
(NNNtp24
ssS'_filename'
p25
S'../python/frowns/smiles_parsers/Element.py'
p26
sS'_docstring'
p27
S''
sS'_name'
p28
g11
sS'_parent'
p29
g7
sS'_comment_info'
p30
(dp31
sS'_configuration_values'
p32
(dp33
sS'_class_info'
p34
g14
sS'_function_info'
p35
g15
sS'_comments'
p36
S''
sbsS'__init__'
p37
(ihappydoclib.parseinfo.functioninfo
FunctionInfo
p38
(dp39
g4
((dp40
(dp41
tp42
sg17
(dp43
sg19
(S'self'
p44
S'**kwargs'
p45
tp46
sg22
(dp47
g44
(NNNtp48
sg45
(NNNtp49
ssg25
g26
sg27
S''
sg28
g37
sg29
g7
sg30
g31
sg32
(dp50
sg34
g40
sg35
g41
sg36
S''
sbstp51
sg25
g26
sg27
S''
sS'_class_member_info'
p52
(lp53
S'_fields'
p54
asg28
g6
sg29
g2
sg30
g31
sS'_base_class_info'
p55
(lp56
sg32
(dp57
sg34
g9
sg35
g10
sg36
S''
sbs(dp58
S'init'
p59
(ihappydoclib.parseinfo.functioninfo
FunctionInfo
p60
(dp61
g4
((dp62
(dp63
tp64
sg17
(dp65
sg19
(tsg22
(dp66
sg25
g26
sg27
S''
sg28
g59
sg29
g2
sg30
g31
sg32
(dp67
sg34
g62
sg35
g63
sg36
S''
sbstp68
sS'_import_info'
p69
(ihappydoclib.parseinfo.imports
ImportInfo
p70
(dp71
S'_named_imports'
p72
(dp73
sS'_straight_imports'
p74
(lp75
S'string'
p76
asbsg25
g26
sg27
S''
sg28
S'Element'
p77
sg29
Nsg30
g31
sg32
(dp78
S'include_comments'
p79
I1
sS'cacheFilePrefix'
p80
S'.happydoc.'
p81
sS'useCache'
p82
I1
sS'docStringFormat'
p83
S'StructuredText'
p84
ssg34
g5
sg35
g58
sg36
S''
sbt.