(S'6478e5a07d022e60e52e9a5ba59c4e49'
p1
(ihappydoclib.parseinfo.moduleinfo
ModuleInfo
p2
(dp3
S'_namespaces'
p4
((dp5
S'DummyVFGraph'
p6
(ihappydoclib.parseinfo.classinfo
ClassInfo
p7
(dp8
g4
((dp9
(dp10
S'InsertEdge'
p11
(ihappydoclib.parseinfo.functioninfo
FunctionInfo
p12
(dp13
g4
((dp14
(dp15
tp16
sS'_exception_info'
p17
(dp18
sS'_parameter_names'
p19
(S'self'
p20
S'index1'
p21
S'index2'
p22
S'bond'
p23
tp24
sS'_parameter_info'
p25
(dp26
g22
(NNNtp27
sg20
(NNNtp28
sg21
(NNNtp29
sg23
(NNNtp30
ssS'_filename'
p31
S'../python/frowns/smiles_parsers/BuildMol.py'
p32
sS'_docstring'
p33
S''
sS'_name'
p34
g11
sS'_parent'
p35
g7
sS'_comment_info'
p36
(dp37
sS'_configuration_values'
p38
(dp39
sS'_class_info'
p40
g14
sS'_function_info'
p41
g15
sS'_comments'
p42
S''
sbsS'InsertNode'
p43
(ihappydoclib.parseinfo.functioninfo
FunctionInfo
p44
(dp45
g4
((dp46
(dp47
tp48
sg17
(dp49
sg19
(S'self'
p50
S'node'
p51
tp52
sg25
(dp53
g51
(NNNtp54
sg50
(NNNtp55
ssg31
g32
sg33
S''
sg34
g43
sg35
g7
sg36
g37
sg38
(dp56
sg40
g46
sg41
g47
sg42
S''
sbsS'__init__'
p57
(ihappydoclib.parseinfo.functioninfo
FunctionInfo
p58
(dp59
g4
((dp60
(dp61
tp62
sg17
(dp63
sg19
(S'self'
p64
tp65
sg25
(dp66
g64
(NNNtp67
ssg31
g32
sg33
S''
sg34
g57
sg35
g7
sg36
g37
sg38
(dp68
sg40
g60
sg41
g61
sg42
S''
sbstp69
sg31
g32
sg33
S''
sS'_class_member_info'
p70
(lp71
sg34
g6
sg35
g2
sg36
g37
sS'_base_class_info'
p72
(lp73
sg38
(dp74
sg40
g9
sg41
g10
sg42
S''
sbsS'BuildMol'
p75
(ihappydoclib.parseinfo.classinfo
ClassInfo
p76
(dp77
g4
((dp78
(dp79
S'do_weight'
p80
(ihappydoclib.parseinfo.functioninfo
FunctionInfo
p81
(dp82
g4
((dp83
(dp84
tp85
sg17
(dp86
sg19
(S'self'
p87
S'text'
p88
tp89
sg25
(dp90
g88
(NNNtp91
sg87
(NNNtp92
ssg31
g32
sg33
S''
sg34
g80
sg35
g76
sg36
g37
sg38
(dp93
sg40
g83
sg41
g84
sg42
S''
sbsS'do_closure'
p94
(ihappydoclib.parseinfo.functioninfo
FunctionInfo
p95
(dp96
g4
((dp97
(dp98
tp99
sg17
(dp100
S'AssertionError( "bond types don\'t match" )'
p101
NsS'AssertionError( "cannot close a ring with itself" )'
p102
Nssg19
(S'self'
p103
S'text'
p104
tp105
sg25
(dp106
g104
(NNNtp107
sg103
(NNNtp108
ssg31
g32
sg33
S''
sg34
g94
sg35
g76
sg36
g37
sg38
(dp109
sg40
g97
sg41
g98
sg42
S''
sbsS'do_hcount'
p110
(ihappydoclib.parseinfo.functioninfo
FunctionInfo
p111
(dp112
g4
((dp113
(dp114
tp115
sg17
(dp116
sg19
(S'self'
p117
S'text'
p118
tp119
sg25
(dp120
g118
(NNNtp121
sg117
(NNNtp122
ssg31
g32
sg33
S''
sg34
g110
sg35
g76
sg36
g37
sg38
(dp123
sg40
g113
sg41
g114
sg42
S''
sbsS'__init__'
p124
(ihappydoclib.parseinfo.functioninfo
FunctionInfo
p125
(dp126
g4
((dp127
(dp128
tp129
sg17
(dp130
sg19
(S'self'
p131
S'enable_vfgraph'
p132
tp133
sg25
(dp134
g131
(NNNtp135
sg132
(NNNtp136
ssg31
g32
sg33
S''
sg34
g124
sg35
g76
sg36
g37
sg38
(dp137
sg40
g127
sg41
g128
sg42
S''
sbsS'do_positive_count'
p138
(ihappydoclib.parseinfo.functioninfo
FunctionInfo
p139
(dp140
g4
((dp141
(dp142
tp143
sg17
(dp144
sg19
(S'self'
p145
S'text'
p146
tp147
sg25
(dp148
g146
(NNNtp149
sg145
(NNNtp150
ssg31
g32
sg33
S''
sg34
g138
sg35
g76
sg36
g37
sg38
(dp151
sg40
g141
sg41
g142
sg42
S''
sbsS'end'
p152
(ihappydoclib.parseinfo.functioninfo
FunctionInfo
p153
(dp154
g4
((dp155
(dp156
tp157
sg17
(dp158
S'AssertionError("Missing closures for %s" %( self.closures.keys(), ) )'
p159
NsS'AssertionError( "Missing an atom after the bond" )'
p160
NsS'AssertionError( "Missing \')\'" )'
p161
Nssg19
(S'self'
p162
tp163
sg25
(dp164
g162
(NNNtp165
ssg31
g32
sg33
S''
sg34
g152
sg35
g76
sg36
g37
sg38
(dp166
sg40
g155
sg41
g156
sg42
S''
sbsS'do_dot'
p167
(ihappydoclib.parseinfo.functioninfo
FunctionInfo
p168
(dp169
g4
((dp170
(dp171
tp172
sg17
(dp173
sg19
(S'self'
p174
S'text'
p175
tp176
sg25
(dp177
g175
(NNNtp178
sg174
(NNNtp179
ssg31
g32
sg33
S''
sg34
g167
sg35
g76
sg36
g37
sg38
(dp180
sg40
g170
sg41
g171
sg42
S''
sbsS'add_token'
p181
(ihappydoclib.parseinfo.functioninfo
FunctionInfo
p182
(dp183
g4
((dp184
(dp185
tp186
sg17
(dp187
sg19
(S'self'
p188
S'field'
p189
S'pos'
p190
S'text'
p191
tp192
sg25
(dp193
g189
(NNNtp194
sg188
(NNNtp195
sg190
(NNNtp196
sg191
(NNNtp197
ssg31
g32
sg33
S''
sg34
g181
sg35
g76
sg36
g37
sg38
(dp198
sg40
g184
sg41
g185
sg42
S''
sbsS'do_negative_count'
p199
(ihappydoclib.parseinfo.functioninfo
FunctionInfo
p200
(dp201
g4
((dp202
(dp203
tp204
sg17
(dp205
sg19
(S'self'
p206
S'text'
p207
tp208
sg25
(dp209
g207
(NNNtp210
sg206
(NNNtp211
ssg31
g32
sg33
S''
sg34
g199
sg35
g76
sg36
g37
sg38
(dp212
sg40
g202
sg41
g203
sg42
S''
sbsS'begin'
p213
(ihappydoclib.parseinfo.functioninfo
FunctionInfo
p214
(dp215
g4
((dp216
(dp217
tp218
sg17
(dp219
sg19
(S'self'
p220
tp221
sg25
(dp222
g220
(NNNtp223
ssg31
g32
sg33
S''
sg34
g213
sg35
g76
sg36
g37
sg38
(dp224
sg40
g216
sg41
g217
sg42
S''
sbsS'do_close_branch'
p225
(ihappydoclib.parseinfo.functioninfo
FunctionInfo
p226
(dp227
g4
((dp228
(dp229
tp230
sg17
(dp231
sg19
(S'self'
p232
S'text'
p233
tp234
sg25
(dp235
g233
(NNNtp236
sg232
(NNNtp237
ssg31
g32
sg33
S''
sg34
g225
sg35
g76
sg36
g37
sg38
(dp238
sg40
g228
sg41
g229
sg42
S''
sbsS'do_chiral_count'
p239
(ihappydoclib.parseinfo.functioninfo
FunctionInfo
p240
(dp241
g4
((dp242
(dp243
tp244
sg17
(dp245
sg19
(S'self'
p246
S'text'
p247
tp248
sg25
(dp249
g247
(NNNtp250
sg246
(NNNtp251
ssg31
g32
sg33
S''
sg34
g239
sg35
g76
sg36
g37
sg38
(dp252
sg40
g242
sg41
g243
sg42
S''
sbsS'do_chiral_symbols'
p253
(ihappydoclib.parseinfo.functioninfo
FunctionInfo
p254
(dp255
g4
((dp256
(dp257
tp258
sg17
(dp259
sg19
(S'self'
p260
S'text'
p261
tp262
sg25
(dp263
g261
(NNNtp264
sg260
(NNNtp265
ssg31
g32
sg33
S''
sg34
g253
sg35
g76
sg36
g37
sg38
(dp266
sg40
g256
sg41
g257
sg42
S''
sbsS'do_chiral_named'
p267
(ihappydoclib.parseinfo.functioninfo
FunctionInfo
p268
(dp269
g4
((dp270
(dp271
tp272
sg17
(dp273
sg19
(S'self'
p274
S'text'
p275
tp276
sg25
(dp277
g275
(NNNtp278
sg274
(NNNtp279
ssg31
g32
sg33
S''
sg34
g267
sg35
g76
sg36
g37
sg38
(dp280
sg40
g270
sg41
g271
sg42
S''
sbsS'do_raw_atom'
p281
(ihappydoclib.parseinfo.functioninfo
FunctionInfo
p282
(dp283
g4
((dp284
(dp285
tp286
sg17
(dp287
sg19
(S'self'
p288
S'text'
p289
tp290
sg25
(dp291
g289
(NNNtp292
sg288
(NNNtp293
ssg31
g32
sg33
S''
sg34
g281
sg35
g76
sg36
g37
sg38
(dp294
sg40
g284
sg41
g285
sg42
S''
sbsS'do_element'
p295
(ihappydoclib.parseinfo.functioninfo
FunctionInfo
p296
(dp297
g4
((dp298
(dp299
tp300
sg17
(dp301
sg19
(S'self'
p302
S'text'
p303
tp304
sg25
(dp305
g303
(NNNtp306
sg302
(NNNtp307
ssg31
g32
sg33
S''
sg34
g295
sg35
g76
sg36
g37
sg38
(dp308
sg40
g298
sg41
g299
sg42
S''
sbsS'do_close_bracket'
p309
(ihappydoclib.parseinfo.functioninfo
FunctionInfo
p310
(dp311
g4
((dp312
(dp313
tp314
sg17
(dp315
sg19
(S'self'
p316
S'text'
p317
tp318
sg25
(dp319
g317
(NNNtp320
sg316
(NNNtp321
ssg31
g32
sg33
S''
sg34
g309
sg35
g76
sg36
g37
sg38
(dp322
sg40
g312
sg41
g313
sg42
S''
sbsS'do_open_bracket'
p323
(ihappydoclib.parseinfo.functioninfo
FunctionInfo
p324
(dp325
g4
((dp326
(dp327
tp328
sg17
(dp329
sg19
(S'self'
p330
S'text'
p331
tp332
sg25
(dp333
g331
(NNNtp334
sg330
(NNNtp335
ssg31
g32
sg33
S''
sg34
g323
sg35
g76
sg36
g37
sg38
(dp336
sg40
g326
sg41
g327
sg42
S''
sbsS'do_bond'
p337
(ihappydoclib.parseinfo.functioninfo
FunctionInfo
p338
(dp339
g4
((dp340
(dp341
tp342
sg17
(dp343
sg19
(S'self'
p344
S'text'
p345
tp346
sg25
(dp347
g345
(NNNtp348
sg344
(NNNtp349
ssg31
g32
sg33
S''
sg34
g337
sg35
g76
sg36
g37
sg38
(dp350
sg40
g340
sg41
g341
sg42
S''
sbsS'do_open_branch'
p351
(ihappydoclib.parseinfo.functioninfo
FunctionInfo
p352
(dp353
g4
((dp354
(dp355
tp356
sg17
(dp357
sg19
(S'self'
p358
S'text'
p359
tp360
sg25
(dp361
g359
(NNNtp362
sg358
(NNNtp363
ssg31
g32
sg33
S''
sg34
g351
sg35
g76
sg36
g37
sg38
(dp364
sg40
g354
sg41
g355
sg42
S''
sbsS'do_positive_symbols'
p365
(ihappydoclib.parseinfo.functioninfo
FunctionInfo
p366
(dp367
g4
((dp368
(dp369
tp370
sg17
(dp371
sg19
(S'self'
p372
S'text'
p373
tp374
sg25
(dp375
g373
(NNNtp376
sg372
(NNNtp377
ssg31
g32
sg33
S''
sg34
g365
sg35
g76
sg36
g37
sg38
(dp378
sg40
g368
sg41
g369
sg42
S''
sbsS'do_negative_symbols'
p379
(ihappydoclib.parseinfo.functioninfo
FunctionInfo
p380
(dp381
g4
((dp382
(dp383
tp384
sg17
(dp385
sg19
(S'self'
p386
S'text'
p387
tp388
sg25
(dp389
g387
(NNNtp390
sg386
(NNNtp391
ssg31
g32
sg33
S''
sg34
g379
sg35
g76
sg36
g37
sg38
(dp392
sg40
g382
sg41
g383
sg42
S''
sbsS'add_atom'
p393
(ihappydoclib.parseinfo.functioninfo
FunctionInfo
p394
(dp395
g4
((dp396
(dp397
tp398
sg17
(dp399
sg19
(S'self'
p400
S'atom'
p401
tp402
sg25
(dp403
g400
(NNNtp404
sg401
(NNNtp405
ssg31
g32
sg33
S''
sg34
g393
sg35
g76
sg36
g37
sg38
(dp406
sg40
g396
sg41
g397
sg42
S''
sbstp407
sg31
g32
sg33
S''
sg70
(lp408
sg34
g75
sg35
g2
sg36
g37
sg72
(lp409
S'Handler.TokenHandler'
p410
asg38
(dp411
sg40
g78
sg41
g79
sg42
S''
sbs(dp412
S'test'
p413
(ihappydoclib.parseinfo.functioninfo
FunctionInfo
p414
(dp415
g4
((dp416
(dp417
tp418
sg17
(dp419
sg19
(tsg25
(dp420
sg31
g32
sg33
S''
sg34
g413
sg35
g2
sg36
g37
sg38
(dp421
sg40
g416
sg41
g417
sg42
S''
sbsS'normalize_closure'
p422
(ihappydoclib.parseinfo.functioninfo
FunctionInfo
p423
(dp424
g4
((dp425
(dp426
tp427
sg17
(dp428
sg19
(S'text'
p429
tp430
sg25
(dp431
g429
(NNNtp432
ssg31
g32
sg33
S''
sg34
g422
sg35
g2
sg36
g37
sg38
(dp433
sg40
g425
sg41
g426
sg42
S''
sbsS'get_symbol_aromatic'
p434
(ihappydoclib.parseinfo.functioninfo
FunctionInfo
p435
(dp436
g4
((dp437
(dp438
tp439
sg17
(dp440
sg19
(S'text'
p441
tp442
sg25
(dp443
g441
(NNNtp444
ssg31
g32
sg33
S''
sg34
g434
sg35
g2
sg36
g37
sg38
(dp445
sg40
g437
sg41
g438
sg42
S''
sbstp446
sS'_import_info'
p447
(ihappydoclib.parseinfo.imports
ImportInfo
p448
(dp449
S'_named_imports'
p450
(dp451
S'frowns.Molecule'
p452
(lp453
S'Molecule'
p454
asS'frowns.Atom'
p455
(lp456
S'Atom'
p457
asS'frowns.Bond'
p458
(lp459
S'Bond'
p460
assS'_straight_imports'
p461
(lp462
S'string'
p463
aS'Handler'
p464
aS'weakref'
p465
asbsg31
g32
sg33
S''
sg34
S'BuildMol'
p466
sg35
Nsg36
g37
sg38
(dp467
S'include_comments'
p468
I1
sS'cacheFilePrefix'
p469
S'.happydoc.'
p470
sS'useCache'
p471
I1
sS'docStringFormat'
p472
S'StructuredText'
p473
ssg40
g5
sg41
g412
sg42
S''
sbt.