(S'1cd749554ce6ae8e80f7c30e55cf1a83'
p1
(ihappydoclib.parseinfo.moduleinfo
ModuleInfo
p2
(dp3
S'_namespaces'
p4
((dp5
S'ConnectivityMatch'
p6
(ihappydoclib.parseinfo.classinfo
ClassInfo
p7
(dp8
g4
((dp9
(dp10
tp11
sS'_filename'
p12
S'../python/frowns/smiles_parsers/BuildMatcher.py'
p13
sS'_docstring'
p14
S''
sS'_class_member_info'
p15
(lp16
S'property'
p17
asS'_name'
p18
g6
sS'_parent'
p19
g2
sS'_comment_info'
p20
(dp21
sS'_base_class_info'
p22
(lp23
S'PropertyMatch'
p24
asS'_configuration_values'
p25
(dp26
sS'_class_info'
p27
g9
sS'_function_info'
p28
g10
sS'_comments'
p29
S''
sbsS'BooleanRingMembershipMatch'
p30
(ihappydoclib.parseinfo.classinfo
ClassInfo
p31
(dp32
g4
((dp33
(dp34
tp35
sg12
g13
sg14
S''
sg15
(lp36
S'property'
p37
asg18
g30
sg19
g2
sg20
g21
sg22
(lp38
S'BooleanMatch'
p39
asg25
(dp40
sg27
g33
sg28
g34
sg29
S''
sbsS'Molecule'
p41
(ihappydoclib.parseinfo.classinfo
ClassInfo
p42
(dp43
g4
((dp44
(dp45
S'__del__'
p46
(ihappydoclib.parseinfo.functioninfo
FunctionInfo
p47
(dp48
g4
((dp49
(dp50
tp51
sS'_exception_info'
p52
(dp53
sS'_parameter_names'
p54
(S'self'
p55
tp56
sS'_parameter_info'
p57
(dp58
g55
(NNNtp59
ssg12
g13
sg14
S''
sg18
g46
sg19
g42
sg20
g21
sg25
(dp60
sg27
g49
sg28
g50
sg29
S''
sbsS'dump'
p61
(ihappydoclib.parseinfo.functioninfo
FunctionInfo
p62
(dp63
g4
((dp64
(dp65
tp66
sg52
(dp67
sg54
(S'self'
p68
tp69
sg57
(dp70
g68
(NNNtp71
ssg12
g13
sg14
S''
sg18
g61
sg19
g42
sg20
g21
sg25
(dp72
sg27
g64
sg28
g65
sg29
S''
sbsS'__init__'
p73
(ihappydoclib.parseinfo.functioninfo
FunctionInfo
p74
(dp75
g4
((dp76
(dp77
tp78
sg52
(dp79
sg54
(S'self'
p80
tp81
sg57
(dp82
g80
(NNNtp83
ssg12
g13
sg14
S''
sg18
g73
sg19
g42
sg20
g21
sg25
(dp84
sg27
g76
sg28
g77
sg29
S''
sbstp85
sg12
g13
sg14
S''
sg15
(lp86
sg18
g41
sg19
g2
sg20
g21
sg22
(lp87
sg25
(dp88
sg27
g44
sg28
g45
sg29
S''
sbsS'OrMatch'
p89
(ihappydoclib.parseinfo.classinfo
ClassInfo
p90
(dp91
g4
((dp92
(dp93
S'__str__'
p94
(ihappydoclib.parseinfo.functioninfo
FunctionInfo
p95
(dp96
g4
((dp97
(dp98
tp99
sg52
(dp100
sg54
(S'self'
p101
tp102
sg57
(dp103
g101
(NNNtp104
ssg12
g13
sg14
S''
sg18
g94
sg19
g90
sg20
g21
sg25
(dp105
sg27
g97
sg28
g98
sg29
S''
sbsS'match'
p106
(ihappydoclib.parseinfo.functioninfo
FunctionInfo
p107
(dp108
g4
((dp109
(dp110
tp111
sg52
(dp112
sg54
(S'self'
p113
S'obj'
p114
tp115
sg57
(dp116
g113
(NNNtp117
sg114
(NNNtp118
ssg12
g13
sg14
S''
sg18
g106
sg19
g90
sg20
g21
sg25
(dp119
sg27
g109
sg28
g110
sg29
S''
sbsS'__init__'
p120
(ihappydoclib.parseinfo.functioninfo
FunctionInfo
p121
(dp122
g4
((dp123
(dp124
tp125
sg52
(dp126
sg54
(S'self'
p127
S'left'
p128
S'right'
p129
tp130
sg57
(dp131
g127
(NNNtp132
sg129
(NNNtp133
sg128
(NNNtp134
ssg12
g13
sg14
S''
sg18
g120
sg19
g90
sg20
g21
sg25
(dp135
sg27
g123
sg28
g124
sg29
S''
sbstp136
sg12
g13
sg14
S''
sg15
(lp137
sg18
g89
sg19
g2
sg20
g21
sg22
(lp138
sg25
(dp139
sg27
g92
sg28
g93
sg29
S''
sbsS'BuildMatcher'
p140
(ihappydoclib.parseinfo.classinfo
ClassInfo
p141
(dp142
g4
((dp143
(dp144
S'do_ring_membership'
p145
(ihappydoclib.parseinfo.functioninfo
FunctionInfo
p146
(dp147
g4
((dp148
(dp149
tp150
sg52
(dp151
sg54
(S'self'
p152
S'text'
p153
tp154
sg57
(dp155
g153
(NNNtp156
sg152
(NNNtp157
ssg12
g13
sg14
S''
sg18
g145
sg19
g141
sg20
g21
sg25
(dp158
sg27
g148
sg28
g149
sg29
S''
sbsS'_verify'
p159
(ihappydoclib.parseinfo.functioninfo
FunctionInfo
p160
(dp161
g4
((dp162
(dp163
tp164
sg52
(dp165
S'AssertionError( "Missing an atom expression after the bond" )'
p166
NsS'AssertionError("Missing closures for %s" %( self.closures.keys(), ) )'
p167
NsS'AssertionError( "Missing \')\'" )'
p168
Nssg54
(S'self'
p169
tp170
sg57
(dp171
g169
(NNNtp172
ssg12
g13
sg14
S''
sg18
g159
sg19
g141
sg20
g21
sg25
(dp173
sg27
g162
sg28
g163
sg29
S''
sbsS'do_weight'
p174
(ihappydoclib.parseinfo.functioninfo
FunctionInfo
p175
(dp176
g4
((dp177
(dp178
tp179
sg52
(dp180
sg54
(S'self'
p181
S'text'
p182
tp183
sg57
(dp184
g182
(NNNtp185
sg181
(NNNtp186
ssg12
g13
sg14
S''
sg18
g174
sg19
g141
sg20
g21
sg25
(dp187
sg27
g177
sg28
g178
sg29
S''
sbsS'do_ring_size'
p188
(ihappydoclib.parseinfo.functioninfo
FunctionInfo
p189
(dp190
g4
((dp191
(dp192
tp193
sg52
(dp194
sg54
(S'self'
p195
S'text'
p196
tp197
sg57
(dp198
g196
(NNNtp199
sg195
(NNNtp200
ssg12
g13
sg14
S''
sg18
g188
sg19
g141
sg20
g21
sg25
(dp201
sg27
g191
sg28
g192
sg29
S''
sbsS'do_aromatic'
p202
(ihappydoclib.parseinfo.functioninfo
FunctionInfo
p203
(dp204
g4
((dp205
(dp206
tp207
sg52
(dp208
sg54
(S'self'
p209
S'text'
p210
tp211
sg57
(dp212
g210
(NNNtp213
sg209
(NNNtp214
ssg12
g13
sg14
S''
sg18
g202
sg19
g141
sg20
g21
sg25
(dp215
sg27
g205
sg28
g206
sg29
S''
sbsS'do_raw_h_unknown'
p216
(ihappydoclib.parseinfo.functioninfo
FunctionInfo
p217
(dp218
g4
((dp219
(dp220
tp221
sg52
(dp222
sg54
(S'self'
p223
S'text'
p224
tp225
sg57
(dp226
g224
(NNNtp227
sg223
(NNNtp228
ssg12
g13
sg14
S''
sg18
g216
sg19
g141
sg20
g21
sg25
(dp229
sg27
g219
sg28
g220
sg29
S''
sbsS'do_total_hcount'
p230
(ihappydoclib.parseinfo.functioninfo
FunctionInfo
p231
(dp232
g4
((dp233
(dp234
tp235
sg52
(dp236
sg54
(S'self'
p237
S'text'
p238
tp239
sg57
(dp240
g238
(NNNtp241
sg237
(NNNtp242
ssg12
g13
sg14
S''
sg18
g230
sg19
g141
sg20
g21
sg25
(dp243
sg27
g233
sg28
g234
sg29
S''
sbsS'do_raw_i_unknown'
p244
(ihappydoclib.parseinfo.functioninfo
FunctionInfo
p245
(dp246
g4
((dp247
(dp248
tp249
sg52
(dp250
sg54
(S'self'
p251
S'text'
p252
tp253
sg57
(dp254
g252
(NNNtp255
sg251
(NNNtp256
ssg12
g13
sg14
S''
sg18
g244
sg19
g141
sg20
g21
sg25
(dp257
sg27
g247
sg28
g248
sg29
S''
sbsS'do_open_recursive_smarts'
p258
(ihappydoclib.parseinfo.functioninfo
FunctionInfo
p259
(dp260
g4
((dp261
(dp262
tp263
sg52
(dp264
sg54
(S'self'
p265
S'text'
p266
tp267
sg57
(dp268
g266
(NNNtp269
sg265
(NNNtp270
ssg12
g13
sg14
S''
sg18
g258
sg19
g141
sg20
g21
sg25
(dp271
sg27
g261
sg28
g262
sg29
S''
sbsS'do_positive_count'
p272
(ihappydoclib.parseinfo.functioninfo
FunctionInfo
p273
(dp274
g4
((dp275
(dp276
tp277
sg52
(dp278
sg54
(S'self'
p279
S'text'
p280
tp281
sg57
(dp282
g280
(NNNtp283
sg279
(NNNtp284
ssg12
g13
sg14
S''
sg18
g272
sg19
g141
sg20
g21
sg25
(dp285
sg27
g275
sg28
g276
sg29
S''
sbsS'end'
p286
(ihappydoclib.parseinfo.functioninfo
FunctionInfo
p287
(dp288
g4
((dp289
(dp290
tp291
sg52
(dp292
S'AssertionError( "Inside of a recursive SMARTS" )'
p293
Nssg54
(S'self'
p294
tp295
sg57
(dp296
g294
(NNNtp297
ssg12
g13
sg14
S''
sg18
g286
sg19
g141
sg20
g21
sg25
(dp298
sg27
g289
sg28
g290
sg29
S''
sbsS'do_dot'
p299
(ihappydoclib.parseinfo.functioninfo
FunctionInfo
p300
(dp301
g4
((dp302
(dp303
tp304
sg52
(dp305
sg54
(S'self'
p306
S'text'
p307
tp308
sg57
(dp309
g307
(NNNtp310
sg306
(NNNtp311
ssg12
g13
sg14
S''
sg18
g299
sg19
g141
sg20
g21
sg25
(dp312
sg27
g302
sg28
g303
sg29
S''
sbsS'do_degree'
p313
(ihappydoclib.parseinfo.functioninfo
FunctionInfo
p314
(dp315
g4
((dp316
(dp317
tp318
sg52
(dp319
sg54
(S'self'
p320
S'text'
p321
tp322
sg57
(dp323
g321
(NNNtp324
sg320
(NNNtp325
ssg12
g13
sg14
S''
sg18
g313
sg19
g141
sg20
g21
sg25
(dp326
sg27
g316
sg28
g317
sg29
S''
sbsS'do_raw_r_unknown'
p327
(ihappydoclib.parseinfo.functioninfo
FunctionInfo
p328
(dp329
g4
((dp330
(dp331
tp332
sg52
(dp333
sg54
(S'self'
p334
S'text'
p335
tp336
sg57
(dp337
g335
(NNNtp338
sg334
(NNNtp339
ssg12
g13
sg14
S''
sg18
g327
sg19
g141
sg20
g21
sg25
(dp340
sg27
g330
sg28
g331
sg29
S''
sbsS'do_open_zero'
p341
(ihappydoclib.parseinfo.functioninfo
FunctionInfo
p342
(dp343
g4
((dp344
(dp345
tp346
sg52
(dp347
sg54
(S'self'
p348
S'text'
p349
tp350
sg57
(dp351
g349
(NNNtp352
sg348
(NNNtp353
ssg12
g13
sg14
S''
sg18
g341
sg19
g141
sg20
g21
sg25
(dp354
sg27
g344
sg28
g345
sg29
S''
sbsS'add_token'
p355
(ihappydoclib.parseinfo.functioninfo
FunctionInfo
p356
(dp357
g4
((dp358
(dp359
tp360
sg52
(dp361
sg54
(S'self'
p362
S'field'
p363
S'pos'
p364
S'text'
p365
tp366
sg57
(dp367
g363
(NNNtp368
sg362
(NNNtp369
sg364
(NNNtp370
sg365
(NNNtp371
ssg12
g13
sg14
S''
sg18
g355
sg19
g141
sg20
g21
sg25
(dp372
sg27
g358
sg28
g359
sg29
S''
sbsS'do_raw_b_unknown'
p373
(ihappydoclib.parseinfo.functioninfo
FunctionInfo
p374
(dp375
g4
((dp376
(dp377
tp378
sg52
(dp379
sg54
(S'self'
p380
S'text'
p381
tp382
sg57
(dp383
g381
(NNNtp384
sg380
(NNNtp385
ssg12
g13
sg14
S''
sg18
g373
sg19
g141
sg20
g21
sg25
(dp386
sg27
g376
sg28
g377
sg29
S''
sbsS'do_atom_binary'
p387
(ihappydoclib.parseinfo.functioninfo
FunctionInfo
p388
(dp389
g4
((dp390
(dp391
tp392
sg52
(dp393
sg54
(S'self'
p394
S'text'
p395
tp396
sg57
(dp397
g395
(NNNtp398
sg394
(NNNtp399
ssg12
g13
sg14
S''
sg18
g387
sg19
g141
sg20
g21
sg25
(dp400
sg27
g390
sg28
g391
sg29
S''
sbsS'do_raw_aliphatic'
p401
(ihappydoclib.parseinfo.functioninfo
FunctionInfo
p402
(dp403
g4
((dp404
(dp405
tp406
sg52
(dp407
sg54
(S'self'
p408
S'text'
p409
tp410
sg57
(dp411
g409
(NNNtp412
sg408
(NNNtp413
ssg12
g13
sg14
S''
sg18
g401
sg19
g141
sg20
g21
sg25
(dp414
sg27
g404
sg28
g405
sg29
S''
sbsS'do_negative_count'
p415
(ihappydoclib.parseinfo.functioninfo
FunctionInfo
p416
(dp417
g4
((dp418
(dp419
tp420
sg52
(dp421
sg54
(S'self'
p422
S'text'
p423
tp424
sg57
(dp425
g423
(NNNtp426
sg422
(NNNtp427
ssg12
g13
sg14
S''
sg18
g415
sg19
g141
sg20
g21
sg25
(dp428
sg27
g418
sg28
g419
sg29
S''
sbsS'do_bond_binary'
p429
(ihappydoclib.parseinfo.functioninfo
FunctionInfo
p430
(dp431
g4
((dp432
(dp433
tp434
sg52
(dp435
sg54
(S'self'
p436
S'text'
p437
tp438
sg57
(dp439
g437
(NNNtp440
sg436
(NNNtp441
ssg12
g13
sg14
S''
sg18
g429
sg19
g141
sg20
g21
sg25
(dp442
sg27
g432
sg28
g433
sg29
S''
sbsS'begin'
p443
(ihappydoclib.parseinfo.functioninfo
FunctionInfo
p444
(dp445
g4
((dp446
(dp447
tp448
sg52
(dp449
sg54
(S'self'
p450
tp451
sg57
(dp452
g450
(NNNtp453
ssg12
g13
sg14
S''
sg18
g443
sg19
g141
sg20
g21
sg25
(dp454
sg27
g446
sg28
g447
sg29
S''
sbsS'do_closure'
p455
(ihappydoclib.parseinfo.functioninfo
FunctionInfo
p456
(dp457
g4
((dp458
(dp459
tp460
sg52
(dp461
S'NotImplementedError( "Need to check if they match" )'
p462
NsS'AssertionError( "cannot close a ring with itself" )'
p463
Nssg54
(S'self'
p464
S'text'
p465
tp466
sg57
(dp467
g465
(NNNtp468
sg464
(NNNtp469
ssg12
g13
sg14
S''
sg18
g455
sg19
g141
sg20
g21
sg25
(dp470
sg27
g458
sg28
g459
sg29
S''
sbsS'do_raw_f_unknown'
p471
(ihappydoclib.parseinfo.functioninfo
FunctionInfo
p472
(dp473
g4
((dp474
(dp475
tp476
sg52
(dp477
sg54
(S'self'
p478
S'text'
p479
tp480
sg57
(dp481
g479
(NNNtp482
sg478
(NNNtp483
ssg12
g13
sg14
S''
sg18
g471
sg19
g141
sg20
g21
sg25
(dp484
sg27
g474
sg28
g475
sg29
S''
sbsS'do_close_branch'
p485
(ihappydoclib.parseinfo.functioninfo
FunctionInfo
p486
(dp487
g4
((dp488
(dp489
tp490
sg52
(dp491
sg54
(S'self'
p492
S'text'
p493
tp494
sg57
(dp495
g493
(NNNtp496
sg492
(NNNtp497
ssg12
g13
sg14
S''
sg18
g485
sg19
g141
sg20
g21
sg25
(dp498
sg27
g488
sg28
g489
sg29
S''
sbsS'do_chiral_count'
p499
(ihappydoclib.parseinfo.functioninfo
FunctionInfo
p500
(dp501
g4
((dp502
(dp503
tp504
sg52
(dp505
sg54
(S'self'
p506
S'text'
p507
tp508
sg57
(dp509
g507
(NNNtp510
sg506
(NNNtp511
ssg12
g13
sg14
S''
sg18
g499
sg19
g141
sg20
g21
sg25
(dp512
sg27
g502
sg28
g503
sg29
S''
sbsS'do_atomic_number'
p513
(ihappydoclib.parseinfo.functioninfo
FunctionInfo
p514
(dp515
g4
((dp516
(dp517
tp518
sg52
(dp519
sg54
(S'self'
p520
S'text'
p521
tp522
sg57
(dp523
g521
(NNNtp524
sg520
(NNNtp525
ssg12
g13
sg14
S''
sg18
g513
sg19
g141
sg20
g21
sg25
(dp526
sg27
g516
sg28
g517
sg29
S''
sbsS'do_raw_R_unknown'
p527
(ihappydoclib.parseinfo.functioninfo
FunctionInfo
p528
(dp529
g4
((dp530
(dp531
tp532
sg52
(dp533
sg54
(S'self'
p534
S'text'
p535
tp536
sg57
(dp537
g535
(NNNtp538
sg534
(NNNtp539
ssg12
g13
sg14
S''
sg18
g527
sg19
g141
sg20
g21
sg25
(dp540
sg27
g530
sg28
g531
sg29
S''
sbsS'do_aliphatic'
p541
(ihappydoclib.parseinfo.functioninfo
FunctionInfo
p542
(dp543
g4
((dp544
(dp545
tp546
sg52
(dp547
sg54
(S'self'
p548
S'text'
p549
tp550
sg57
(dp551
g549
(NNNtp552
sg548
(NNNtp553
ssg12
g13
sg14
S''
sg18
g541
sg19
g141
sg20
g21
sg25
(dp554
sg27
g544
sg28
g545
sg29
S''
sbsS'do_bond_not'
p555
(ihappydoclib.parseinfo.functioninfo
FunctionInfo
p556
(dp557
g4
((dp558
(dp559
tp560
sg52
(dp561
sg54
(S'self'
p562
S'text'
p563
tp564
sg57
(dp565
g563
(NNNtp566
sg562
(NNNtp567
ssg12
g13
sg14
S''
sg18
g555
sg19
g141
sg20
g21
sg25
(dp568
sg27
g558
sg28
g559
sg29
S''
sbsS'do_chiral_symbols'
p569
(ihappydoclib.parseinfo.functioninfo
FunctionInfo
p570
(dp571
g4
((dp572
(dp573
tp574
sg52
(dp575
sg54
(S'self'
p576
S'text'
p577
tp578
sg57
(dp579
g577
(NNNtp580
sg576
(NNNtp581
ssg12
g13
sg14
S''
sg18
g569
sg19
g141
sg20
g21
sg25
(dp582
sg27
g572
sg28
g573
sg29
S''
sbsS'do_chiral_named'
p583
(ihappydoclib.parseinfo.functioninfo
FunctionInfo
p584
(dp585
g4
((dp586
(dp587
tp588
sg52
(dp589
sg54
(S'self'
p590
S'text'
p591
tp592
sg57
(dp593
g591
(NNNtp594
sg590
(NNNtp595
ssg12
g13
sg14
S''
sg18
g583
sg19
g141
sg20
g21
sg25
(dp596
sg27
g586
sg28
g587
sg29
S''
sbsS'do_raw_atom'
p597
(ihappydoclib.parseinfo.functioninfo
FunctionInfo
p598
(dp599
g4
((dp600
(dp601
tp602
sg52
(dp603
sg54
(S'self'
p604
S'text'
p605
tp606
sg57
(dp607
g605
(NNNtp608
sg604
(NNNtp609
ssg12
g13
sg14
S''
sg18
g597
sg19
g141
sg20
g21
sg25
(dp610
sg27
g600
sg28
g601
sg29
S''
sbsS'do_element'
p611
(ihappydoclib.parseinfo.functioninfo
FunctionInfo
p612
(dp613
g4
((dp614
(dp615
tp616
sg52
(dp617
sg54
(S'self'
p618
S'text'
p619
tp620
sg57
(dp621
g619
(NNNtp622
sg618
(NNNtp623
ssg12
g13
sg14
S''
sg18
g611
sg19
g141
sg20
g21
sg25
(dp624
sg27
g614
sg28
g615
sg29
S''
sbsS'do_close_zero'
p625
(ihappydoclib.parseinfo.functioninfo
FunctionInfo
p626
(dp627
g4
((dp628
(dp629
tp630
sg52
(dp631
sg54
(S'self'
p632
S'text'
p633
tp634
sg57
(dp635
g633
(NNNtp636
sg632
(NNNtp637
ssg12
g13
sg14
S''
sg18
g625
sg19
g141
sg20
g21
sg25
(dp638
sg27
g628
sg28
g629
sg29
S''
sbsS'do_close_bracket'
p639
(ihappydoclib.parseinfo.functioninfo
FunctionInfo
p640
(dp641
g4
((dp642
(dp643
tp644
sg52
(dp645
sg54
(S'self'
p646
S'text'
p647
tp648
sg57
(dp649
g647
(NNNtp650
sg646
(NNNtp651
ssg12
g13
sg14
S''
sg18
g639
sg19
g141
sg20
g21
sg25
(dp652
sg27
g642
sg28
g643
sg29
S''
sbsS'do_atom_not'
p653
(ihappydoclib.parseinfo.functioninfo
FunctionInfo
p654
(dp655
g4
((dp656
(dp657
tp658
sg52
(dp659
sg54
(S'self'
p660
S'text'
p661
tp662
sg57
(dp663
g661
(NNNtp664
sg660
(NNNtp665
ssg12
g13
sg14
S''
sg18
g653
sg19
g141
sg20
g21
sg25
(dp666
sg27
g656
sg28
g657
sg29
S''
sbsS'do_open_bracket'
p667
(ihappydoclib.parseinfo.functioninfo
FunctionInfo
p668
(dp669
g4
((dp670
(dp671
tp672
sg52
(dp673
sg54
(S'self'
p674
S'text'
p675
tp676
sg57
(dp677
g675
(NNNtp678
sg674
(NNNtp679
ssg12
g13
sg14
S''
sg18
g667
sg19
g141
sg20
g21
sg25
(dp680
sg27
g670
sg28
g671
sg29
S''
sbsS'do_bond'
p681
(ihappydoclib.parseinfo.functioninfo
FunctionInfo
p682
(dp683
g4
((dp684
(dp685
tp686
sg52
(dp687
sg54
(S'self'
p688
S'text'
p689
tp690
sg57
(dp691
g689
(NNNtp692
sg688
(NNNtp693
ssg12
g13
sg14
S''
sg18
g681
sg19
g141
sg20
g21
sg25
(dp694
sg27
g684
sg28
g685
sg29
S''
sbsS'do_imp_hcount'
p695
(ihappydoclib.parseinfo.functioninfo
FunctionInfo
p696
(dp697
g4
((dp698
(dp699
tp700
sg52
(dp701
sg54
(S'self'
p702
S'text'
p703
tp704
sg57
(dp705
g703
(NNNtp706
sg702
(NNNtp707
ssg12
g13
sg14
S''
sg18
g695
sg19
g141
sg20
g21
sg25
(dp708
sg27
g698
sg28
g699
sg29
S''
sbsS'do_connectivity'
p709
(ihappydoclib.parseinfo.functioninfo
FunctionInfo
p710
(dp711
g4
((dp712
(dp713
tp714
sg52
(dp715
sg54
(S'self'
p716
S'text'
p717
tp718
sg57
(dp719
g717
(NNNtp720
sg716
(NNNtp721
ssg12
g13
sg14
S''
sg18
g709
sg19
g141
sg20
g21
sg25
(dp722
sg27
g712
sg28
g713
sg29
S''
sbsS'do_raw_aromatic'
p723
(ihappydoclib.parseinfo.functioninfo
FunctionInfo
p724
(dp725
g4
((dp726
(dp727
tp728
sg52
(dp729
sg54
(S'self'
p730
S'text'
p731
tp732
sg57
(dp733
g731
(NNNtp734
sg730
(NNNtp735
ssg12
g13
sg14
S''
sg18
g723
sg19
g141
sg20
g21
sg25
(dp736
sg27
g726
sg28
g727
sg29
S''
sbsS'do_valence'
p737
(ihappydoclib.parseinfo.functioninfo
FunctionInfo
p738
(dp739
g4
((dp740
(dp741
tp742
sg52
(dp743
sg54
(S'self'
p744
S'text'
p745
tp746
sg57
(dp747
g745
(NNNtp748
sg744
(NNNtp749
ssg12
g13
sg14
S''
sg18
g737
sg19
g141
sg20
g21
sg25
(dp750
sg27
g740
sg28
g741
sg29
S''
sbsS'do_close_recursive_smarts'
p751
(ihappydoclib.parseinfo.functioninfo
FunctionInfo
p752
(dp753
g4
((dp754
(dp755
tp756
sg52
(dp757
sg54
(S'self'
p758
S'text'
p759
tp760
sg57
(dp761
g759
(NNNtp762
sg758
(NNNtp763
ssg12
g13
sg14
S''
sg18
g751
sg19
g141
sg20
g21
sg25
(dp764
sg27
g754
sg28
g755
sg29
S''
sbsS'do_positive_symbols'
p765
(ihappydoclib.parseinfo.functioninfo
FunctionInfo
p766
(dp767
g4
((dp768
(dp769
tp770
sg52
(dp771
sg54
(S'self'
p772
S'text'
p773
tp774
sg57
(dp775
g773
(NNNtp776
sg772
(NNNtp777
ssg12
g13
sg14
S''
sg18
g765
sg19
g141
sg20
g21
sg25
(dp778
sg27
g768
sg28
g769
sg29
S''
sbsS'do_negative_symbols'
p779
(ihappydoclib.parseinfo.functioninfo
FunctionInfo
p780
(dp781
g4
((dp782
(dp783
tp784
sg52
(dp785
sg54
(S'self'
p786
S'text'
p787
tp788
sg57
(dp789
g787
(NNNtp790
sg786
(NNNtp791
ssg12
g13
sg14
S''
sg18
g779
sg19
g141
sg20
g21
sg25
(dp792
sg27
g782
sg28
g783
sg29
S''
sbsS'do_open_branch'
p793
(ihappydoclib.parseinfo.functioninfo
FunctionInfo
p794
(dp795
g4
((dp796
(dp797
tp798
sg52
(dp799
sg54
(S'self'
p800
S'text'
p801
tp802
sg57
(dp803
g801
(NNNtp804
sg800
(NNNtp805
ssg12
g13
sg14
S''
sg18
g793
sg19
g141
sg20
g21
sg25
(dp806
sg27
g796
sg28
g797
sg29
S''
sbsS'_reset'
p807
(ihappydoclib.parseinfo.functioninfo
FunctionInfo
p808
(dp809
g4
((dp810
(dp811
tp812
sg52
(dp813
sg54
(S'self'
p814
tp815
sg57
(dp816
g814
(NNNtp817
ssg12
g13
sg14
S''
sg18
g807
sg19
g141
sg20
g21
sg25
(dp818
sg27
g810
sg28
g811
sg29
S''
sbsS'add_atom'
p819
(ihappydoclib.parseinfo.functioninfo
FunctionInfo
p820
(dp821
g4
((dp822
(dp823
tp824
sg52
(dp825
sg54
(S'self'
p826
S'atom'
p827
tp828
sg57
(dp829
g826
(NNNtp830
sg827
(NNNtp831
ssg12
g13
sg14
S''
sg18
g819
sg19
g141
sg20
g21
sg25
(dp832
sg27
g822
sg28
g823
sg29
S''
sbstp833
sg12
g13
sg14
S''
sg15
(lp834
S'_save_state'
p835
asg18
g140
sg19
g2
sg20
g21
sg22
(lp836
S'Handler.TokenHandler'
p837
asg25
(dp838
sg27
g143
sg28
g144
sg29
S''
sbsS'RingMembershipMatch'
p839
(ihappydoclib.parseinfo.classinfo
ClassInfo
p840
(dp841
g4
((dp842
(dp843
tp844
sg12
g13
sg14
S''
sg15
(lp845
S'property'
p846
asg18
g839
sg19
g2
sg20
g21
sg22
(lp847
S'PropertyMatch'
p848
asg25
(dp849
sg27
g842
sg28
g843
sg29
S''
sbsS'PropertyMatch'
p850
(ihappydoclib.parseinfo.classinfo
ClassInfo
p851
(dp852
g4
((dp853
(dp854
S'__str__'
p855
(ihappydoclib.parseinfo.functioninfo
FunctionInfo
p856
(dp857
g4
((dp858
(dp859
tp860
sg52
(dp861
sg54
(S'self'
p862
tp863
sg57
(dp864
g862
(NNNtp865
ssg12
g13
sg14
S''
sg18
g855
sg19
g851
sg20
g21
sg25
(dp866
sg27
g858
sg28
g859
sg29
S''
sbsS'match'
p867
(ihappydoclib.parseinfo.functioninfo
FunctionInfo
p868
(dp869
g4
((dp870
(dp871
tp872
sg52
(dp873
sg54
(S'self'
p874
S'atom'
p875
tp876
sg57
(dp877
g874
(NNNtp878
sg875
(NNNtp879
ssg12
g13
sg14
S''
sg18
g867
sg19
g851
sg20
g21
sg25
(dp880
sg27
g870
sg28
g871
sg29
S''
sbsS'__init__'
p881
(ihappydoclib.parseinfo.functioninfo
FunctionInfo
p882
(dp883
g4
((dp884
(dp885
tp886
sg52
(dp887
sg54
(S'self'
p888
S'value'
p889
tp890
sg57
(dp891
g888
(NNNtp892
sg889
(NNNtp893
ssg12
g13
sg14
S''
sg18
g881
sg19
g851
sg20
g21
sg25
(dp894
sg27
g884
sg28
g885
sg29
S''
sbstp895
sg12
g13
sg14
S''
sg15
(lp896
S'property'
p897
asg18
g850
sg19
g2
sg20
g21
sg22
(lp898
sg25
(dp899
sg27
g853
sg28
g854
sg29
S''
sbsS'ImplicitHMatch'
p900
(ihappydoclib.parseinfo.classinfo
ClassInfo
p901
(dp902
g4
((dp903
(dp904
tp905
sg12
g13
sg14
S''
sg15
(lp906
S'property'
p907
asg18
g900
sg19
g2
sg20
g21
sg22
(lp908
S'PropertyMatch'
p909
asg25
(dp910
sg27
g903
sg28
g904
sg29
S''
sbsS'SymbolMatch'
p911
(ihappydoclib.parseinfo.classinfo
ClassInfo
p912
(dp913
g4
((dp914
(dp915
tp916
sg12
g13
sg14
S''
sg15
(lp917
S'property'
p918
asg18
g911
sg19
g2
sg20
g21
sg22
(lp919
S'PropertyMatch'
p920
asg25
(dp921
sg27
g914
sg28
g915
sg29
S''
sbsS'NotMatch'
p922
(ihappydoclib.parseinfo.classinfo
ClassInfo
p923
(dp924
g4
((dp925
(dp926
S'__str__'
p927
(ihappydoclib.parseinfo.functioninfo
FunctionInfo
p928
(dp929
g4
((dp930
(dp931
tp932
sg52
(dp933
sg54
(S'self'
p934
tp935
sg57
(dp936
g934
(NNNtp937
ssg12
g13
sg14
S''
sg18
g927
sg19
g923
sg20
g21
sg25
(dp938
sg27
g930
sg28
g931
sg29
S''
sbsS'match'
p939
(ihappydoclib.parseinfo.functioninfo
FunctionInfo
p940
(dp941
g4
((dp942
(dp943
tp944
sg52
(dp945
sg54
(S'self'
p946
S'obj'
p947
tp948
sg57
(dp949
g946
(NNNtp950
sg947
(NNNtp951
ssg12
g13
sg14
S''
sg18
g939
sg19
g923
sg20
g21
sg25
(dp952
sg27
g942
sg28
g943
sg29
S''
sbsS'__init__'
p953
(ihappydoclib.parseinfo.functioninfo
FunctionInfo
p954
(dp955
g4
((dp956
(dp957
tp958
sg52
(dp959
sg54
(S'self'
p960
S'child'
p961
tp962
sg57
(dp963
g960
(NNNtp964
sg961
(NNNtp965
ssg12
g13
sg14
S''
sg18
g953
sg19
g923
sg20
g21
sg25
(dp966
sg27
g956
sg28
g957
sg29
S''
sbstp967
sg12
g13
sg14
S''
sg15
(lp968
sg18
g922
sg19
g2
sg20
g21
sg22
(lp969
sg25
(dp970
sg27
g925
sg28
g926
sg29
S''
sbsS'ChargeMatch'
p971
(ihappydoclib.parseinfo.classinfo
ClassInfo
p972
(dp973
g4
((dp974
(dp975
tp976
sg12
g13
sg14
S''
sg15
(lp977
S'property'
p978
asg18
g971
sg19
g2
sg20
g21
sg22
(lp979
S'PropertyMatch'
p980
asg25
(dp981
sg27
g974
sg28
g975
sg29
S''
sbsS'AtomicNumberMatch'
p982
(ihappydoclib.parseinfo.classinfo
ClassInfo
p983
(dp984
g4
((dp985
(dp986
tp987
sg12
g13
sg14
S''
sg15
(lp988
S'property'
p989
asg18
g982
sg19
g2
sg20
g21
sg22
(lp990
S'PropertyMatch'
p991
asg25
(dp992
sg27
g985
sg28
g986
sg29
S''
sbsS'AndMatch'
p993
(ihappydoclib.parseinfo.classinfo
ClassInfo
p994
(dp995
g4
((dp996
(dp997
S'__str__'
p998
(ihappydoclib.parseinfo.functioninfo
FunctionInfo
p999
(dp1000
g4
((dp1001
(dp1002
tp1003
sg52
(dp1004
sg54
(S'self'
p1005
tp1006
sg57
(dp1007
g1005
(NNNtp1008
ssg12
g13
sg14
S''
sg18
g998
sg19
g994
sg20
g21
sg25
(dp1009
sg27
g1001
sg28
g1002
sg29
S''
sbsS'match'
p1010
(ihappydoclib.parseinfo.functioninfo
FunctionInfo
p1011
(dp1012
g4
((dp1013
(dp1014
tp1015
sg52
(dp1016
sg54
(S'self'
p1017
S'obj'
p1018
tp1019
sg57
(dp1020
g1017
(NNNtp1021
sg1018
(NNNtp1022
ssg12
g13
sg14
S''
sg18
g1010
sg19
g994
sg20
g21
sg25
(dp1023
sg27
g1013
sg28
g1014
sg29
S''
sbsS'__init__'
p1024
(ihappydoclib.parseinfo.functioninfo
FunctionInfo
p1025
(dp1026
g4
((dp1027
(dp1028
tp1029
sg52
(dp1030
sg54
(S'self'
p1031
S'left'
p1032
S'right'
p1033
tp1034
sg57
(dp1035
g1031
(NNNtp1036
sg1033
(NNNtp1037
sg1032
(NNNtp1038
ssg12
g13
sg14
S''
sg18
g1024
sg19
g994
sg20
g21
sg25
(dp1039
sg27
g1027
sg28
g1028
sg29
S''
sbstp1040
sg12
g13
sg14
S''
sg15
(lp1041
sg18
g993
sg19
g2
sg20
g21
sg22
(lp1042
sg25
(dp1043
sg27
g996
sg28
g997
sg29
S''
sbsS'WeightMatch'
p1044
(ihappydoclib.parseinfo.classinfo
ClassInfo
p1045
(dp1046
g4
((dp1047
(dp1048
tp1049
sg12
g13
sg14
S''
sg15
(lp1050
S'property'
p1051
asg18
g1044
sg19
g2
sg20
g21
sg22
(lp1052
S'PropertyMatch'
p1053
asg25
(dp1054
sg27
g1047
sg28
g1048
sg29
S''
sbsS'RingSizeMatch'
p1055
(ihappydoclib.parseinfo.classinfo
ClassInfo
p1056
(dp1057
g4
((dp1058
(dp1059
tp1060
sg12
g13
sg14
S''
sg15
(lp1061
S'property'
p1062
asg18
g1055
sg19
g2
sg20
g21
sg22
(lp1063
S'PropertyMatch'
p1064
asg25
(dp1065
sg27
g1058
sg28
g1059
sg29
S''
sbsS'Atom'
p1066
(ihappydoclib.parseinfo.classinfo
ClassInfo
p1067
(dp1068
g4
((dp1069
(dp1070
S'dump_info'
p1071
(ihappydoclib.parseinfo.functioninfo
FunctionInfo
p1072
(dp1073
g4
((dp1074
(dp1075
tp1076
sg52
(dp1077
sg54
(S'self'
p1078
S'bonds'
p1079
tp1080
sg57
(dp1081
g1078
(NNNtp1082
sg1079
(NNNtp1083
ssg12
g13
sg14
S''
sg18
g1071
sg19
g1067
sg20
g21
sg25
(dp1084
sg27
g1074
sg28
g1075
sg29
S''
sbsS'match'
p1085
(ihappydoclib.parseinfo.functioninfo
FunctionInfo
p1086
(dp1087
g4
((dp1088
(dp1089
tp1090
sg52
(dp1091
sg54
(S'self'
p1092
S'atom'
p1093
tp1094
sg57
(dp1095
g1092
(NNNtp1096
sg1093
(NNNtp1097
ssg12
g13
sg14
S''
sg18
g1085
sg19
g1067
sg20
g21
sg25
(dp1098
sg27
g1088
sg28
g1089
sg29
S''
sbsS'__init__'
p1099
(ihappydoclib.parseinfo.functioninfo
FunctionInfo
p1100
(dp1101
g4
((dp1102
(dp1103
tp1104
sg52
(dp1105
sg54
(S'self'
p1106
S'matcher'
p1107
S'component_number'
p1108
tp1109
sg57
(dp1110
g1107
(NNNtp1111
sg1106
(NNNtp1112
sg1108
(NNNtp1113
ssg12
g13
sg14
S''
sg18
g1099
sg19
g1067
sg20
g21
sg25
(dp1114
sg27
g1102
sg28
g1103
sg29
S''
sbstp1115
sg12
g13
sg14
S''
sg15
(lp1116
sg18
g1066
sg19
g2
sg20
g21
sg22
(lp1117
sg25
(dp1118
sg27
g1069
sg28
g1070
sg29
S''
sbsS'RecursiveMatcher'
p1119
(ihappydoclib.parseinfo.classinfo
ClassInfo
p1120
(dp1121
g4
((dp1122
(dp1123
S'__str__'
p1124
(ihappydoclib.parseinfo.functioninfo
FunctionInfo
p1125
(dp1126
g4
((dp1127
(dp1128
tp1129
sg52
(dp1130
sg54
(S'self'
p1131
tp1132
sg57
(dp1133
g1131
(NNNtp1134
ssg12
g13
sg14
S''
sg18
g1124
sg19
g1120
sg20
g21
sg25
(dp1135
sg27
g1127
sg28
g1128
sg29
S''
sbsS'match'
p1136
(ihappydoclib.parseinfo.functioninfo
FunctionInfo
p1137
(dp1138
g4
((dp1139
(dp1140
tp1141
sg52
(dp1142
S'NotImplementedError'
p1143
Nssg54
(S'self'
p1144
S'atom'
p1145
tp1146
sg57
(dp1147
g1144
(NNNtp1148
sg1145
(NNNtp1149
ssg12
g13
sg14
S''
sg18
g1136
sg19
g1120
sg20
g21
sg25
(dp1150
sg27
g1139
sg28
g1140
sg29
S''
sbsS'__init__'
p1151
(ihappydoclib.parseinfo.functioninfo
FunctionInfo
p1152
(dp1153
g4
((dp1154
(dp1155
tp1156
sg52
(dp1157
sg54
(S'self'
p1158
S'mol'
p1159
tp1160
sg57
(dp1161
g1158
(NNNtp1162
sg1159
(NNNtp1163
ssg12
g13
sg14
S''
sg18
g1151
sg19
g1120
sg20
g21
sg25
(dp1164
sg27
g1154
sg28
g1155
sg29
S''
sbstp1165
sg12
g13
sg14
S''
sg15
(lp1166
sg18
g1119
sg19
g2
sg20
g21
sg22
(lp1167
sg25
(dp1168
sg27
g1122
sg28
g1123
sg29
S''
sbsS'ChiralClassMatch'
p1169
(ihappydoclib.parseinfo.classinfo
ClassInfo
p1170
(dp1171
g4
((dp1172
(dp1173
tp1174
sg12
g13
sg14
S''
sg15
(lp1175
S'property'
p1176
asg18
g1169
sg19
g2
sg20
g21
sg22
(lp1177
S'PropertyMatch'
p1178
asg25
(dp1179
sg27
g1172
sg28
g1173
sg29
S''
sbsS'AtomExpression'
p1180
(ihappydoclib.parseinfo.classinfo
ClassInfo
p1181
(dp1182
g4
((dp1183
(dp1184
tp1185
sg12
g13
sg14
S''
sg15
(lp1186
sg18
g1180
sg19
g2
sg20
g21
sg22
(lp1187
S'ExpressionList'
p1188
asg25
(dp1189
sg27
g1183
sg28
g1184
sg29
S''
sbsS'BooleanMatch'
p1190
(ihappydoclib.parseinfo.classinfo
ClassInfo
p1191
(dp1192
g4
((dp1193
(dp1194
S'__str__'
p1195
(ihappydoclib.parseinfo.functioninfo
FunctionInfo
p1196
(dp1197
g4
((dp1198
(dp1199
tp1200
sg52
(dp1201
sg54
(S'self'
p1202
tp1203
sg57
(dp1204
g1202
(NNNtp1205
ssg12
g13
sg14
S''
sg18
g1195
sg19
g1191
sg20
g21
sg25
(dp1206
sg27
g1198
sg28
g1199
sg29
S''
sbsS'__init__'
p1207
(ihappydoclib.parseinfo.functioninfo
FunctionInfo
p1208
(dp1209
g4
((dp1210
(dp1211
tp1212
sg52
(dp1213
sg54
(S'self'
p1214
S'value'
p1215
tp1216
sg57
(dp1217
g1214
(NNNtp1218
sg1215
(I1
S'1'
Ntp1219
ssg12
g13
sg14
S''
sg18
g1207
sg19
g1191
sg20
g21
sg25
(dp1220
sg27
g1210
sg28
g1211
sg29
S''
sbstp1221
sg12
g13
sg14
S''
sg15
(lp1222
sg18
g1190
sg19
g2
sg20
g21
sg22
(lp1223
S'PropertyMatch'
p1224
asg25
(dp1225
sg27
g1193
sg28
g1194
sg29
S''
sbsS'AromaticMatch'
p1226
(ihappydoclib.parseinfo.classinfo
ClassInfo
p1227
(dp1228
g4
((dp1229
(dp1230
tp1231
sg12
g13
sg14
S''
sg15
(lp1232
S'property'
p1233
asg18
g1226
sg19
g2
sg20
g21
sg22
(lp1234
S'PropertyMatch'
p1235
asg25
(dp1236
sg27
g1229
sg28
g1230
sg29
S''
sbsS'TotalHMatch'
p1237
(ihappydoclib.parseinfo.classinfo
ClassInfo
p1238
(dp1239
g4
((dp1240
(dp1241
tp1242
sg12
g13
sg14
S''
sg15
(lp1243
S'property'
p1244
asg18
g1237
sg19
g2
sg20
g21
sg22
(lp1245
S'PropertyMatch'
p1246
asg25
(dp1247
sg27
g1240
sg28
g1241
sg29
S''
sbsS'ValenceMatch'
p1248
(ihappydoclib.parseinfo.classinfo
ClassInfo
p1249
(dp1250
g4
((dp1251
(dp1252
tp1253
sg12
g13
sg14
S''
sg15
(lp1254
S'property'
p1255
asg18
g1248
sg19
g2
sg20
g21
sg22
(lp1256
S'PropertyMatch'
p1257
asg25
(dp1258
sg27
g1251
sg28
g1252
sg29
S''
sbsS'ExpressionList'
p1259
(ihappydoclib.parseinfo.classinfo
ClassInfo
p1260
(dp1261
g4
((dp1262
(dp1263
S'add_operator'
p1264
(ihappydoclib.parseinfo.functioninfo
FunctionInfo
p1265
(dp1266
g4
((dp1267
(dp1268
tp1269
sg52
(dp1270
sg54
(S'self'
p1271
S'op'
p1272
tp1273
sg57
(dp1274
g1271
(NNNtp1275
sg1272
(NNNtp1276
ssg12
g13
sg14
S''
sg18
g1264
sg19
g1260
sg20
g21
sg25
(dp1277
sg27
g1267
sg28
g1268
sg29
S''
sbsS'add_matcher'
p1278
(ihappydoclib.parseinfo.functioninfo
FunctionInfo
p1279
(dp1280
g4
((dp1281
(dp1282
tp1283
sg52
(dp1284
sg54
(S'self'
p1285
S'obj'
p1286
tp1287
sg57
(dp1288
g1285
(NNNtp1289
sg1286
(NNNtp1290
ssg12
g13
sg14
S''
sg18
g1278
sg19
g1260
sg20
g21
sg25
(dp1291
sg27
g1281
sg28
g1282
sg29
S''
sbsS'__nonzero__'
p1292
(ihappydoclib.parseinfo.functioninfo
FunctionInfo
p1293
(dp1294
g4
((dp1295
(dp1296
tp1297
sg52
(dp1298
sg54
(S'self'
p1299
tp1300
sg57
(dp1301
g1299
(NNNtp1302
ssg12
g13
sg14
S''
sg18
g1292
sg19
g1260
sg20
g21
sg25
(dp1303
sg27
g1295
sg28
g1296
sg29
S''
sbsS'__init__'
p1304
(ihappydoclib.parseinfo.functioninfo
FunctionInfo
p1305
(dp1306
g4
((dp1307
(dp1308
tp1309
sg52
(dp1310
sg54
(S'self'
p1311
tp1312
sg57
(dp1313
g1311
(NNNtp1314
ssg12
g13
sg14
S''
sg18
g1304
sg19
g1260
sg20
g21
sg25
(dp1315
sg27
g1307
sg28
g1308
sg29
S''
sbsS'make_matcher'
p1316
(ihappydoclib.parseinfo.functioninfo
FunctionInfo
p1317
(dp1318
g4
((dp1319
(dp1320
tp1321
sg52
(dp1322
sg54
(S'self'
p1323
tp1324
sg57
(dp1325
g1323
(NNNtp1326
ssg12
g13
sg14
S''
sg18
g1316
sg19
g1260
sg20
g21
sg25
(dp1327
sg27
g1319
sg28
g1320
sg29
S''
sbstp1328
sg12
g13
sg14
S''
sg15
(lp1329
sg18
g1259
sg19
g2
sg20
g21
sg22
(lp1330
sg25
(dp1331
sg27
g1262
sg28
g1263
sg29
S''
sbsS'Bond'
p1332
(ihappydoclib.parseinfo.classinfo
ClassInfo
p1333
(dp1334
g4
((dp1335
(dp1336
S'dump_info'
p1337
(ihappydoclib.parseinfo.functioninfo
FunctionInfo
p1338
(dp1339
g4
((dp1340
(dp1341
tp1342
sg52
(dp1343
sg54
(S'self'
p1344
S'atoms'
p1345
tp1346
sg57
(dp1347
g1344
(NNNtp1348
sg1345
(NNNtp1349
ssg12
g13
sg14
S''
sg18
g1337
sg19
g1333
sg20
g21
sg25
(dp1350
sg27
g1340
sg28
g1341
sg29
S''
sbsS'match'
p1351
(ihappydoclib.parseinfo.functioninfo
FunctionInfo
p1352
(dp1353
g4
((dp1354
(dp1355
tp1356
sg52
(dp1357
sg54
(S'self'
p1358
S'bond'
p1359
tp1360
sg57
(dp1361
g1358
(NNNtp1362
sg1359
(NNNtp1363
ssg12
g13
sg14
S''
sg18
g1351
sg19
g1333
sg20
g21
sg25
(dp1364
sg27
g1354
sg28
g1355
sg29
S''
sbsS'__init__'
p1365
(ihappydoclib.parseinfo.functioninfo
FunctionInfo
p1366
(dp1367
g4
((dp1368
(dp1369
tp1370
sg52
(dp1371
sg54
(S'self'
p1372
S'matcher'
p1373
S'component_number'
p1374
tp1375
sg57
(dp1376
g1373
(NNNtp1377
sg1372
(NNNtp1378
sg1374
(NNNtp1379
ssg12
g13
sg14
S''
sg18
g1365
sg19
g1333
sg20
g21
sg25
(dp1380
sg27
g1368
sg28
g1369
sg29
S''
sbstp1381
sg12
g13
sg14
S''
sg15
(lp1382
sg18
g1332
sg19
g2
sg20
g21
sg22
(lp1383
sg25
(dp1384
sg27
g1335
sg28
g1336
sg29
S''
sbsS'BondExpression'
p1385
(ihappydoclib.parseinfo.classinfo
ClassInfo
p1386
(dp1387
g4
((dp1388
(dp1389
tp1390
sg12
g13
sg14
S''
sg15
(lp1391
sg18
g1385
sg19
g2
sg20
g21
sg22
(lp1392
S'ExpressionList'
p1393
asg25
(dp1394
sg27
g1388
sg28
g1389
sg29
S''
sbsS'ChiralCountMatch'
p1395
(ihappydoclib.parseinfo.classinfo
ClassInfo
p1396
(dp1397
g4
((dp1398
(dp1399
tp1400
sg12
g13
sg14
S''
sg15
(lp1401
S'property'
p1402
asg18
g1395
sg19
g2
sg20
g21
sg22
(lp1403
S'PropertyMatch'
p1404
asg25
(dp1405
sg27
g1398
sg28
g1399
sg29
S''
sbsS'BondSymbolMatch'
p1406
(ihappydoclib.parseinfo.classinfo
ClassInfo
p1407
(dp1408
g4
((dp1409
(dp1410
tp1411
sg12
g13
sg14
S''
sg15
(lp1412
S'property'
p1413
asg18
g1406
sg19
g2
sg20
g21
sg22
(lp1414
S'PropertyMatch'
p1415
asg25
(dp1416
sg27
g1409
sg28
g1410
sg29
S''
sbsS'DegreeMatch'
p1417
(ihappydoclib.parseinfo.classinfo
ClassInfo
p1418
(dp1419
g4
((dp1420
(dp1421
tp1422
sg12
g13
sg14
S''
sg15
(lp1423
S'property'
p1424
asg18
g1417
sg19
g2
sg20
g21
sg22
(lp1425
S'PropertyMatch'
p1426
asg25
(dp1427
sg27
g1420
sg28
g1421
sg29
S''
sbs(dp1428
S'test'
p1429
(ihappydoclib.parseinfo.functioninfo
FunctionInfo
p1430
(dp1431
g4
((dp1432
(dp1433
tp1434
sg52
(dp1435
sg54
(tsg57
(dp1436
sg12
g13
sg14
S''
sg18
g1429
sg19
g2
sg20
g21
sg25
(dp1437
sg27
g1432
sg28
g1433
sg29
S''
sbsS'normalize_closure'
p1438
(ihappydoclib.parseinfo.functioninfo
FunctionInfo
p1439
(dp1440
g4
((dp1441
(dp1442
tp1443
sg52
(dp1444
sg54
(S'text'
p1445
tp1446
sg57
(dp1447
g1445
(NNNtp1448
ssg12
g13
sg14
S''
sg18
g1438
sg19
g2
sg20
g21
sg25
(dp1449
sg27
g1441
sg28
g1442
sg29
S''
sbsS'get_symbol_aromatic'
p1450
(ihappydoclib.parseinfo.functioninfo
FunctionInfo
p1451
(dp1452
g4
((dp1453
(dp1454
tp1455
sg52
(dp1456
sg54
(S'text'
p1457
tp1458
sg57
(dp1459
g1457
(NNNtp1460
ssg12
g13
sg14
S''
sg18
g1450
sg19
g2
sg20
g21
sg25
(dp1461
sg27
g1453
sg28
g1454
sg29
S''
sbstp1462
sS'_import_info'
p1463
(ihappydoclib.parseinfo.imports
ImportInfo
p1464
(dp1465
S'_named_imports'
p1466
(dp1467
sS'_straight_imports'
p1468
(lp1469
S'string'
p1470
aS'Handler'
p1471
asbsg12
g13
sg14
S'"""\nSMARTS Primitives taken from daylight\'s web site\nhttp://www.daylight.com\n\nSMARTS Atomic primitives\n\nSymbol   Symbol name            Atomic property            Default\n                                requirements\n======   ===========            ============                ===========                                \n*        wildcard               any atom                   (no default) \na        aromatic               aromatic                   (no default) \nA        aliphatic              aliphatic                  (no default) \nD<n>     degree <n>             explicit connections       (no default) \nH<n>     total-H-count <n>      attached hydrogens         exactly one \nh<n>     implicit-H-count <n>   implicit hydrogens         exactly one \nR<n>     ring membership in <n> SSSR rings                 any ring atom \nr<n>     ring size              in smallest SSSR ring      any ring atom \n                                of size <n>   \nv<n>     valence                total bond order <n>       (no default) \nX<n>     connectivity <n>       total connections          (no default) \n- <n>    negative charge -<n>   charge                     -1 charge (-- is -2, etc) \n+<n>     positive charge +<n>   formal charge              +1 charge (++ is +2, etc) \n#n       atomic number          atomic number <n>          (no default) \n@        chirality              anticlockwise              anticlockwise, default class \n@@       chirality              clockwise                  clockwise, default class \n@<c><n>  chirality              chiral class <c>           chirality <n> (nodefault) \n@<c><n>? chiral or              <c><n> orunspecified       (no default) \n         unspec chirality \n<n>      atomic mass            explicit atomic mass       unspecified mass\n\nSMARTS Bond Primitives\nSymbol   Atomic property           requirements \n======   ===============           ============\n-        single bond               (aliphatic) \n/        directional single bond   "up" \n\\        directional single bond   "down" \n/?       directional bond          "up or unspecified" \n\\?       directional bond          "down or unspecified" \n=        double bond \n#        triple bond \n:        aromatic bond \n~        any bond (wildcard) \n@        any ring bond\n"""'
p1472
sg18
S'BuildMatcher'
p1473
sg19
Nsg20
g21
sg25
(dp1474
S'include_comments'
p1475
I1
sS'cacheFilePrefix'
p1476
S'.happydoc.'
p1477
sS'useCache'
p1478
I1
sS'docStringFormat'
p1479
S'StructuredText'
p1480
ssg27
g5
sg28
g1428
sg29
S''
sbt.