(S'1a61fcdf7c7db8aabf5aaf6c744aa0da'
p1
(ihappydoclib.parseinfo.moduleinfo
ModuleInfo
p2
(dp3
S'_namespaces'
p4
((dp5
S'T'
(ihappydoclib.parseinfo.classinfo
ClassInfo
p6
(dp7
g4
((dp8
(dp9
S'__str__'
p10
(ihappydoclib.parseinfo.functioninfo
FunctionInfo
p11
(dp12
g4
((dp13
(dp14
tp15
sS'_exception_info'
p16
(dp17
sS'_parameter_names'
p18
(S'self'
p19
tp20
sS'_parameter_info'
p21
(dp22
g19
(NNNtp23
ssS'_filename'
p24
S'../python/frowns/Chirality/TetraHedral.py'
p25
sS'_docstring'
p26
S''
sS'_name'
p27
g10
sS'_parent'
p28
g6
sS'_comment_info'
p29
(dp30
sS'_configuration_values'
p31
(dp32
sS'_class_info'
p33
g13
sS'_function_info'
p34
g14
sS'_comments'
p35
S''
sbsS'getChirality'
p36
(ihappydoclib.parseinfo.functioninfo
FunctionInfo
p37
(dp38
g4
((dp39
(dp40
tp41
sg16
(dp42
sg18
(S'self'
p43
S'order'
p44
tp45
sg21
(dp46
g43
(NNNtp47
sg44
(NNNtp48
ssg24
g25
sg26
S'(order)->what is the chirality of a given order of\n        atoms?'
p49
sg27
g36
sg28
g6
sg29
g30
sg31
(dp50
sg33
g39
sg34
g40
sg35
S''
sbsS'__init__'
p51
(ihappydoclib.parseinfo.functioninfo
FunctionInfo
p52
(dp53
g4
((dp54
(dp55
tp56
sg16
(dp57
sg18
(S'self'
p58
S'order'
p59
S'chirality'
p60
tp61
sg21
(dp62
g58
(NNNtp63
sg60
(NNNtp64
sg59
(NNNtp65
ssg24
g25
sg26
S''
sg27
g51
sg28
g6
sg29
g30
sg31
(dp66
sg33
g54
sg34
g55
sg35
S''
sbstp67
sg24
g25
sg26
S''
sS'_class_member_info'
p68
(lp69
sg27
S'T'
sg28
g2
sg29
g30
sS'_base_class_info'
p70
(lp71
sg31
(dp72
sg33
g8
sg34
g9
sg35
S''
sbs(dp73
tp74
sS'_import_info'
p75
(ihappydoclib.parseinfo.imports
ImportInfo
p76
(dp77
S'_named_imports'
p78
(dp79
sS'_straight_imports'
p80
(lp81
sbsg24
g25
sg26
S'"""TetraHedral.T(order, chirality)\norder = atoms in the input order of the smiles string.\nchirality = @ anti-clockwise @@ clockwise\n\nTetraHedral.T.getChirality(neworder) -> return the chirality\nof the new order of the atoms\n\norder -> atom order of the molecules\n         around the center.\n         If the number of atoms is 3 then the\n         a hydrogen atom is assumed to complete\n         the chirality.\n\nLookup table\nchirality = \'@\'\ninput order = (1,2,3,4)\nneworder, chirality\n1,2,3,4 : \'@\'\n"""'
p82
sg27
S'TetraHedral'
p83
sg28
Nsg29
g30
sg31
(dp84
S'include_comments'
p85
I1
sS'cacheFilePrefix'
p86
S'.happydoc.'
p87
sS'useCache'
p88
I1
sS'docStringFormat'
p89
S'StructuredText'
p90
ssg33
g5
sg34
g73
sg35
S''
sbt.