(S'71d44c6d72a2fa78e10b4a3b27ee02f9'
p1
(ihappydoclib.parseinfo.moduleinfo
ModuleInfo
p2
(dp3
S'_namespaces'
p4
((dp5
S'my_build_ext'
p6
(ihappydoclib.parseinfo.classinfo
ClassInfo
p7
(dp8
g4
((dp9
(dp10
S'swig_sources'
p11
(ihappydoclib.parseinfo.functioninfo
FunctionInfo
p12
(dp13
g4
((dp14
(dp15
tp16
sS'_exception_info'
p17
(dp18
sS'_parameter_names'
p19
(S'self'
p20
S'sources'
p21
tp22
sS'_parameter_info'
p23
(dp24
g21
(NNNtp25
sg20
(NNNtp26
ssS'_filename'
p27
S'../python/frowns/extensions/vflib/setup_swig.py'
p28
sS'_docstring'
p29
S"Walk the list of source files in 'sources', looking for SWIG\n        interface (.i) files.  Run SWIG on all that are found, and\n        return a modified 'sources' list with SWIG source files replaced\n        by the generated C (or C++) files.\n        "
p30
sS'_name'
p31
g11
sS'_parent'
p32
g7
sS'_comment_info'
p33
(dp34
sS'_configuration_values'
p35
(dp36
sS'_class_info'
p37
g14
sS'_function_info'
p38
g15
sS'_comments'
p39
S''
sbstp40
sg27
g28
sg29
S''
sS'_class_member_info'
p41
(lp42
sg31
g6
sg32
g2
sg33
g34
sS'_base_class_info'
p43
(lp44
S'build_ext.build_ext'
p45
asg35
(dp46
sg37
g9
sg38
g10
sg39
S''
sbs(dp47
tp48
sS'_import_info'
p49
(ihappydoclib.parseinfo.imports
ImportInfo
p50
(dp51
S'_named_imports'
p52
(dp53
S'distutils.core'
p54
(lp55
S'setup'
p56
aS'Extension'
p57
asS'distutils.command'
p58
(lp59
S'build_ext'
p60
assS'_straight_imports'
p61
(lp62
S'distutils'
p63
aS'os'
p64
aS'sys'
p65
asbsg27
g28
sg29
S'"""Python setup file for vflib\n\nSWIG 1.3+ must be installed for this to build correctly.\n"""'
p66
sg31
S'setup_swig'
p67
sg32
Nsg33
g34
sg35
(dp68
S'include_comments'
p69
I1
sS'cacheFilePrefix'
p70
S'.happydoc.'
p71
sS'useCache'
p72
I1
sS'docStringFormat'
p73
S'StructuredText'
p74
ssg37
g5
sg38
g47
sg39
S''
sbt.