(S'b8c912e4b59a0a39d84b7ca335236455'
p1
(ihappydoclib.parseinfo.moduleinfo
ModuleInfo
p2
(dp3
S'_namespaces'
p4
((dp5
S'GraphMatcherPtr'
p6
(ihappydoclib.parseinfo.classinfo
ClassInfo
p7
(dp8
g4
((dp9
(dp10
S'__init__'
p11
(ihappydoclib.parseinfo.functioninfo
FunctionInfo
p12
(dp13
g4
((dp14
(dp15
tp16
sS'_exception_info'
p17
(dp18
sS'_parameter_names'
p19
(S'self'
p20
S'this'
p21
tp22
sS'_parameter_info'
p23
(dp24
g21
(NNNtp25
sg20
(NNNtp26
ssS'_filename'
p27
S'../python/frowns/extensions/vflib/vflib.py'
p28
sS'_docstring'
p29
S''
sS'_name'
p30
g11
sS'_parent'
p31
g7
sS'_comment_info'
p32
(dp33
sS'_configuration_values'
p34
(dp35
sS'_class_info'
p36
g14
sS'_function_info'
p37
g15
sS'_comments'
p38
S''
sbstp39
sg27
g28
sg29
S''
sS'_class_member_info'
p40
(lp41
sg30
g6
sg31
g2
sg32
g33
sS'_base_class_info'
p42
(lp43
S'GraphMatcher'
p44
asg34
(dp45
sg36
g9
sg37
g10
sg38
S''
sbsS'ARGEditPtr'
p46
(ihappydoclib.parseinfo.classinfo
ClassInfo
p47
(dp48
g4
((dp49
(dp50
S'__init__'
p51
(ihappydoclib.parseinfo.functioninfo
FunctionInfo
p52
(dp53
g4
((dp54
(dp55
tp56
sg17
(dp57
sg19
(S'self'
p58
S'this'
p59
tp60
sg23
(dp61
g59
(NNNtp62
sg58
(NNNtp63
ssg27
g28
sg29
S''
sg30
g51
sg31
g47
sg32
g33
sg34
(dp64
sg36
g54
sg37
g55
sg38
S''
sbstp65
sg27
g28
sg29
S''
sg40
(lp66
sg30
g46
sg31
g2
sg32
g33
sg42
(lp67
S'ARGEdit'
p68
asg34
(dp69
sg36
g49
sg37
g50
sg38
S''
sbsS'GraphMatcher'
p70
(ihappydoclib.parseinfo.classinfo
ClassInfo
p71
(dp72
g4
((dp73
(dp74
S'matchVF2Sub'
p75
(ihappydoclib.parseinfo.functioninfo
FunctionInfo
p76
(dp77
g4
((dp78
(dp79
tp80
sg17
(dp81
sg19
(S'*args'
p82
tp83
sg23
(dp84
g82
(NNNtp85
ssg27
g28
sg29
S''
sg30
g75
sg31
g71
sg32
g33
sg34
(dp86
sg36
g78
sg37
g79
sg38
S''
sbsS'matchVFMono'
p87
(ihappydoclib.parseinfo.functioninfo
FunctionInfo
p88
(dp89
g4
((dp90
(dp91
tp92
sg17
(dp93
sg19
(S'*args'
p94
tp95
sg23
(dp96
g94
(NNNtp97
ssg27
g28
sg29
S''
sg30
g87
sg31
g71
sg32
g33
sg34
(dp98
sg36
g90
sg37
g91
sg38
S''
sbsS'matchVF2'
p99
(ihappydoclib.parseinfo.functioninfo
FunctionInfo
p100
(dp101
g4
((dp102
(dp103
tp104
sg17
(dp105
sg19
(S'*args'
p106
tp107
sg23
(dp108
g106
(NNNtp109
ssg27
g28
sg29
S''
sg30
g99
sg31
g71
sg32
g33
sg34
(dp110
sg36
g102
sg37
g103
sg38
S''
sbsS'matchUll'
p111
(ihappydoclib.parseinfo.functioninfo
FunctionInfo
p112
(dp113
g4
((dp114
(dp115
tp116
sg17
(dp117
sg19
(S'*args'
p118
tp119
sg23
(dp120
g118
(NNNtp121
ssg27
g28
sg29
S''
sg30
g111
sg31
g71
sg32
g33
sg34
(dp122
sg36
g114
sg37
g115
sg38
S''
sbsS'__del__'
p123
(ihappydoclib.parseinfo.functioninfo
FunctionInfo
p124
(dp125
g4
((dp126
(dp127
tp128
sg17
(dp129
sg19
(S'self'
p130
S'destroy'
p131
tp132
sg23
(dp133
g131
(I1
S'_vflib.delete_GraphMatcher'
Ntp134
sg130
(NNNtp135
ssg27
g28
sg29
S''
sg30
g123
sg31
g71
sg32
g33
sg34
(dp136
sg36
g126
sg37
g127
sg38
S''
sbsS'matchVFSub'
p137
(ihappydoclib.parseinfo.functioninfo
FunctionInfo
p138
(dp139
g4
((dp140
(dp141
tp142
sg17
(dp143
sg19
(S'*args'
p144
tp145
sg23
(dp146
g144
(NNNtp147
ssg27
g28
sg29
S''
sg30
g137
sg31
g71
sg32
g33
sg34
(dp148
sg36
g140
sg37
g141
sg38
S''
sbsS'matchVF2Mono'
p149
(ihappydoclib.parseinfo.functioninfo
FunctionInfo
p150
(dp151
g4
((dp152
(dp153
tp154
sg17
(dp155
sg19
(S'*args'
p156
tp157
sg23
(dp158
g156
(NNNtp159
ssg27
g28
sg29
S''
sg30
g149
sg31
g71
sg32
g33
sg34
(dp160
sg36
g152
sg37
g153
sg38
S''
sbsS'matchVF'
p161
(ihappydoclib.parseinfo.functioninfo
FunctionInfo
p162
(dp163
g4
((dp164
(dp165
tp166
sg17
(dp167
sg19
(S'*args'
p168
tp169
sg23
(dp170
g168
(NNNtp171
ssg27
g28
sg29
S''
sg30
g161
sg31
g71
sg32
g33
sg34
(dp172
sg36
g164
sg37
g165
sg38
S''
sbsS'__repr__'
p173
(ihappydoclib.parseinfo.functioninfo
FunctionInfo
p174
(dp175
g4
((dp176
(dp177
tp178
sg17
(dp179
sg19
(S'self'
p180
tp181
sg23
(dp182
g180
(NNNtp183
ssg27
g28
sg29
S''
sg30
g173
sg31
g71
sg32
g33
sg34
(dp184
sg36
g176
sg37
g177
sg38
S''
sbsS'matchUllSub'
p185
(ihappydoclib.parseinfo.functioninfo
FunctionInfo
p186
(dp187
g4
((dp188
(dp189
tp190
sg17
(dp191
sg19
(S'*args'
p192
tp193
sg23
(dp194
g192
(NNNtp195
ssg27
g28
sg29
S''
sg30
g185
sg31
g71
sg32
g33
sg34
(dp196
sg36
g188
sg37
g189
sg38
S''
sbsS'__init__'
p197
(ihappydoclib.parseinfo.functioninfo
FunctionInfo
p198
(dp199
g4
((dp200
(dp201
tp202
sg17
(dp203
sg19
(S'self'
p204
S'*args'
p205
tp206
sg23
(dp207
g205
(NNNtp208
sg204
(NNNtp209
ssg27
g28
sg29
S''
sg30
g197
sg31
g71
sg32
g33
sg34
(dp210
sg36
g200
sg37
g201
sg38
S''
sbstp211
sg27
g28
sg29
S''
sg40
(lp212
S'__swig_setmethods__'
p213
aS'__setattr__'
p214
aS'__swig_getmethods__'
p215
aS'__getattr__'
p216
asg30
g70
sg31
g2
sg32
g33
sg42
(lp217
S'_object'
p218
asg34
(dp219
sg36
g73
sg37
g74
sg38
S''
sbsS'ARGEdit'
p220
(ihappydoclib.parseinfo.classinfo
ClassInfo
p221
(dp222
g4
((dp223
(dp224
S'DeleteNode'
p225
(ihappydoclib.parseinfo.functioninfo
FunctionInfo
p226
(dp227
g4
((dp228
(dp229
tp230
sg17
(dp231
sg19
(S'*args'
p232
tp233
sg23
(dp234
g232
(NNNtp235
ssg27
g28
sg29
S''
sg30
g225
sg31
g221
sg32
g33
sg34
(dp236
sg36
g228
sg37
g229
sg38
S''
sbsS'DeleteEdge'
p237
(ihappydoclib.parseinfo.functioninfo
FunctionInfo
p238
(dp239
g4
((dp240
(dp241
tp242
sg17
(dp243
sg19
(S'*args'
p244
tp245
sg23
(dp246
g244
(NNNtp247
ssg27
g28
sg29
S''
sg30
g237
sg31
g221
sg32
g33
sg34
(dp248
sg36
g240
sg37
g241
sg38
S''
sbsS'InsertEdge'
p249
(ihappydoclib.parseinfo.functioninfo
FunctionInfo
p250
(dp251
g4
((dp252
(dp253
tp254
sg17
(dp255
sg19
(S'*args'
p256
tp257
sg23
(dp258
g256
(NNNtp259
ssg27
g28
sg29
S''
sg30
g249
sg31
g221
sg32
g33
sg34
(dp260
sg36
g252
sg37
g253
sg38
S''
sbsS'__del__'
p261
(ihappydoclib.parseinfo.functioninfo
FunctionInfo
p262
(dp263
g4
((dp264
(dp265
tp266
sg17
(dp267
sg19
(S'self'
p268
S'destroy'
p269
tp270
sg23
(dp271
g269
(I1
S'_vflib.delete_ARGEdit'
Ntp272
sg268
(NNNtp273
ssg27
g28
sg29
S''
sg30
g261
sg31
g221
sg32
g33
sg34
(dp274
sg36
g264
sg37
g265
sg38
S''
sbsS'InsertNode'
p275
(ihappydoclib.parseinfo.functioninfo
FunctionInfo
p276
(dp277
g4
((dp278
(dp279
tp280
sg17
(dp281
sg19
(S'*args'
p282
tp283
sg23
(dp284
g282
(NNNtp285
ssg27
g28
sg29
S''
sg30
g275
sg31
g221
sg32
g33
sg34
(dp286
sg36
g278
sg37
g279
sg38
S''
sbsS'NodeCount'
p287
(ihappydoclib.parseinfo.functioninfo
FunctionInfo
p288
(dp289
g4
((dp290
(dp291
tp292
sg17
(dp293
sg19
(S'*args'
p294
tp295
sg23
(dp296
g294
(NNNtp297
ssg27
g28
sg29
S''
sg30
g287
sg31
g221
sg32
g33
sg34
(dp298
sg36
g290
sg37
g291
sg38
S''
sbsS'__init__'
p299
(ihappydoclib.parseinfo.functioninfo
FunctionInfo
p300
(dp301
g4
((dp302
(dp303
tp304
sg17
(dp305
sg19
(S'self'
p306
S'*args'
p307
tp308
sg23
(dp309
g307
(NNNtp310
sg306
(NNNtp311
ssg27
g28
sg29
S''
sg30
g299
sg31
g221
sg32
g33
sg34
(dp312
sg36
g302
sg37
g303
sg38
S''
sbsS'__repr__'
p313
(ihappydoclib.parseinfo.functioninfo
FunctionInfo
p314
(dp315
g4
((dp316
(dp317
tp318
sg17
(dp319
sg19
(S'self'
p320
tp321
sg23
(dp322
g320
(NNNtp323
ssg27
g28
sg29
S''
sg30
g313
sg31
g221
sg32
g33
sg34
(dp324
sg36
g316
sg37
g317
sg38
S''
sbstp325
sg27
g28
sg29
S''
sg40
(lp326
S'__swig_setmethods__'
p327
aS'__setattr__'
p328
aS'__swig_getmethods__'
p329
aS'__getattr__'
p330
asg30
g220
sg31
g2
sg32
g33
sg42
(lp331
S'_object'
p332
asg34
(dp333
sg36
g223
sg37
g224
sg38
S''
sbs(dp334
S'_swig_getattr'
p335
(ihappydoclib.parseinfo.functioninfo
FunctionInfo
p336
(dp337
g4
((dp338
(dp339
tp340
sg17
(dp341
S'AttributeError, name'
p342
Nssg19
(S'self'
p343
S'class_type'
p344
S'name'
p345
tp346
sg23
(dp347
g343
(NNNtp348
sg344
(NNNtp349
sg345
(NNNtp350
ssg27
g28
sg29
S''
sg30
g335
sg31
g2
sg32
g33
sg34
(dp351
sg36
g338
sg37
g339
sg38
S''
sbsS'_swig_setattr'
p352
(ihappydoclib.parseinfo.functioninfo
FunctionInfo
p353
(dp354
g4
((dp355
(dp356
tp357
sg17
(dp358
sg19
(S'self'
p359
S'class_type'
p360
S'name'
p361
S'value'
p362
tp363
sg23
(dp364
g359
(NNNtp365
sg360
(NNNtp366
sg362
(NNNtp367
sg361
(NNNtp368
ssg27
g28
sg29
S''
sg30
g352
sg31
g2
sg32
g33
sg34
(dp369
sg36
g355
sg37
g356
sg38
S''
sbstp370
sS'_import_info'
p371
(ihappydoclib.parseinfo.imports
ImportInfo
p372
(dp373
S'_named_imports'
p374
(dp375
sS'_straight_imports'
p376
(lp377
S'_vflib'
p378
aS'types'
p379
asbsg27
g28
sg29
S''
sg30
S'vflib'
p380
sg31
Nsg32
g33
sg34
(dp381
S'include_comments'
p382
I1
sS'cacheFilePrefix'
p383
S'.happydoc.'
p384
sS'useCache'
p385
I1
sS'docStringFormat'
p386
S'StructuredText'
p387
ssg36
g5
sg37
g334
sg38
S''
sbt.