(S'd736c032cd2141b8ad1da1c7ebbc6b5b'
p1
(ihappydoclib.parseinfo.moduleinfo
ModuleInfo
p2
(dp3
S'_namespaces'
p4
((dp5
(dp6
tp7
sS'_import_info'
p8
(ihappydoclib.parseinfo.imports
ImportInfo
p9
(dp10
S'_named_imports'
p11
(dp12
S'distutils.core'
p13
(lp14
S'setup'
p15
aS'Extension'
p16
assS'_straight_imports'
p17
(lp18
S'distutils'
p19
aS'os'
p20
aS'sys'
p21
asbsS'_filename'
p22
S'../python/frowns/extensions/vflib/setup.py'
p23
sS'_docstring'
p24
S'"""Python setup file for vflib\n\nSee setup_swig.py if you want to install using swig.\n"""'
p25
sS'_name'
p26
S'setup'
p27
sS'_parent'
p28
NsS'_comment_info'
p29
(dp30
sS'_configuration_values'
p31
(dp32
S'include_comments'
p33
I1
sS'cacheFilePrefix'
p34
S'.happydoc.'
p35
sS'useCache'
p36
I1
sS'docStringFormat'
p37
S'StructuredText'
p38
ssS'_class_info'
p39
g5
sS'_function_info'
p40
g6
sS'_comments'
p41
S''
sbt.