(S'e55869f8b37ec3d432b937bacb3da02c'
p1
(ihappydoclib.parseinfo.moduleinfo
ModuleInfo
p2
(dp3
S'_namespaces'
p4
((dp5
(dp6
S'getStereoCenters'
p7
(ihappydoclib.parseinfo.functioninfo
FunctionInfo
p8
(dp9
g4
((dp10
(dp11
tp12
sS'_exception_info'
p13
(dp14
sS'_parameter_names'
p15
(S'molecule'
p16
tp17
sS'_parameter_info'
p18
(dp19
g16
(NNNtp20
ssS'_filename'
p21
S'../python/frowns/Utils/__init__.py'
p22
sS'_docstring'
p23
S'(molecule) -> return a list of the atom stereo centers'
p24
sS'_name'
p25
g7
sS'_parent'
p26
g2
sS'_comment_info'
p27
(dp28
sS'_configuration_values'
p29
(dp30
sS'_class_info'
p31
g10
sS'_function_info'
p32
g11
sS'_comments'
p33
S''
sbsS'bfsCheckAtoms'
p34
(ihappydoclib.parseinfo.functioninfo
FunctionInfo
p35
(dp36
g4
((dp37
(dp38
tp39
sg13
(dp40
sg15
(S'atom'
p41
tp42
sg18
(dp43
g41
(NNNtp44
ssg21
g22
sg23
S'(atom) -> See if the bfs atoms can form a chiral center'
p45
sg25
g34
sg26
g2
sg27
g28
sg29
(dp46
sg31
g37
sg32
g38
sg33
S''
sbstp47
sS'_import_info'
p48
(ihappydoclib.parseinfo.imports
ImportInfo
p49
(dp50
S'_named_imports'
p51
(dp52
sS'_straight_imports'
p53
(lp54
sbsg21
g22
sg23
S''
sg25
S'__init__'
p55
sg26
Nsg27
g28
sg29
(dp56
S'include_comments'
p57
I1
sS'cacheFilePrefix'
p58
S'.happydoc.'
p59
sS'useCache'
p60
I1
sS'docStringFormat'
p61
S'StructuredText'
p62
ssg31
g5
sg32
g6
sg33
S''
sbt.