(S'7b60dd9e9f4e7e086f134960bb396e77'
p1
(ihappydoclib.parseinfo.moduleinfo
ModuleInfo
p2
(dp3
S'_namespaces'
p4
((dp5
(dp6
S'getSaturationScore'
p7
(ihappydoclib.parseinfo.functioninfo
FunctionInfo
p8
(dp9
g4
((dp10
(dp11
tp12
sS'_exception_info'
p13
(dp14
sS'_parameter_names'
p15
(S'molecule'
p16
tp17
sS'_parameter_info'
p18
(dp19
g16
(NNNtp20
ssS'_filename'
p21
S'../python/frowns/Utils/SaturatedRings.py'
p22
sS'_docstring'
p23
S''
sS'_name'
p24
g7
sS'_parent'
p25
g2
sS'_comment_info'
p26
(dp27
sS'_configuration_values'
p28
(dp29
sS'_class_info'
p30
g10
sS'_function_info'
p31
g11
sS'_comments'
p32
S''
sbstp33
sS'_import_info'
p34
(ihappydoclib.parseinfo.imports
ImportInfo
p35
(dp36
S'_named_imports'
p37
(dp38
S'frowns.perception'
p39
(lp40
S'sssr'
p41
assS'_straight_imports'
p42
(lp43
sbsg21
g22
sg23
S''
sg24
S'SaturatedRings'
p44
sg25
Nsg26
g27
sg28
(dp45
S'include_comments'
p46
I1
sS'cacheFilePrefix'
p47
S'.happydoc.'
p48
sS'useCache'
p49
I1
sS'docStringFormat'
p50
S'StructuredText'
p51
ssg30
g5
sg31
g6
sg32
S''
sbt.