(S'9f56b8cb4283842c6eba64d7563248a2'
p1
(ihappydoclib.parseinfo.moduleinfo
ModuleInfo
p2
(dp3
S'_namespaces'
p4
((dp5
(dp6
S'generatePaths'
p7
(ihappydoclib.parseinfo.functioninfo
FunctionInfo
p8
(dp9
g4
((dp10
(dp11
tp12
sS'_exception_info'
p13
(dp14
sS'_parameter_names'
p15
(S'molecule'
p16
S'mindepth'
p17
S'maxdepth'
p18
tp19
sS'_parameter_info'
p20
(dp21
g17
(I1
S'6'
Ntp22
sg16
(NNNtp23
sg18
(I1
S'7'
Ntp24
ssS'_filename'
p25
S'../python/frowns/Utils/LinearWalk.py'
p26
sS'_docstring'
p27
S'(molecule, mindepth maxdepth) -> linear paths\n    Generate all linear paths through a molecule from mindepth atoms\n    to maxdepth atoms\n    '
p28
sS'_name'
p29
g7
sS'_parent'
p30
g2
sS'_comment_info'
p31
(dp32
sS'_configuration_values'
p33
(dp34
sS'_class_info'
p35
g10
sS'_function_info'
p36
g11
sS'_comments'
p37
S''
sbsS'_dfswalk'
p38
(ihappydoclib.parseinfo.functioninfo
FunctionInfo
p39
(dp40
g4
((dp41
(dp42
tp43
sg13
(dp44
sg15
(S'atom'
p45
S'visitedAtoms'
p46
S'visitedBonds'
p47
S'nonPathBonds'
p48
S'path'
p49
S'paths'
p50
S'depth'
p51
S'mindepth'
p52
S'maxdepth'
p53
tp54
sg20
(dp55
g47
(NNNtp56
sg50
(NNNtp57
sg48
(NNNtp58
sg52
(NNNtp59
sg51
(NNNtp60
sg53
(NNNtp61
sg45
(NNNtp62
sg46
(NNNtp63
sg49
(NNNtp64
ssg25
g26
sg27
S''
sg29
g38
sg30
g2
sg31
g32
sg33
(dp65
sg35
g41
sg36
g42
sg37
S''
sbstp66
sS'_import_info'
p67
(ihappydoclib.parseinfo.imports
ImportInfo
p68
(dp69
S'_named_imports'
p70
(dp71
sS'_straight_imports'
p72
(lp73
sbsg25
g26
sg27
S''
sg29
S'LinearWalk'
p74
sg30
Nsg31
g32
sg33
(dp75
S'include_comments'
p76
I1
sS'cacheFilePrefix'
p77
S'.happydoc.'
p78
sS'useCache'
p79
I1
sS'docStringFormat'
p80
S'StructuredText'
p81
ssg35
g5
sg36
g6
sg37
S''
sbt.