(S'2659562f0dfb14d4db1d0abe64749939'
p1
(ihappydoclib.parseinfo.moduleinfo
ModuleInfo
p2
(dp3
S'_namespaces'
p4
((dp5
(dp6
S'components'
p7
(ihappydoclib.parseinfo.functioninfo
FunctionInfo
p8
(dp9
g4
((dp10
(dp11
tp12
sS'_exception_info'
p13
(dp14
sS'_parameter_names'
p15
(S'molecule'
p16
tp17
sS'_parameter_info'
p18
(dp19
g16
(NNNtp20
ssS'_filename'
p21
S'../python/frowns/Utils/Components.py'
p22
sS'_docstring'
p23
S''
sS'_name'
p24
g7
sS'_parent'
p25
g2
sS'_comment_info'
p26
(dp27
sS'_configuration_values'
p28
(dp29
sS'_class_info'
p30
g10
sS'_function_info'
p31
g11
sS'_comments'
p32
S''
sbsS'_recurse'
p33
(ihappydoclib.parseinfo.functioninfo
FunctionInfo
p34
(dp35
g4
((dp36
(dp37
tp38
sg13
(dp39
sg15
(S'atom'
p40
S'visited'
p41
tp42
sg18
(dp43
g41
(NNNtp44
sg40
(NNNtp45
ssg21
g22
sg23
S''
sg24
g33
sg25
g2
sg26
g27
sg28
(dp46
sg30
g36
sg31
g37
sg32
S''
sbstp47
sS'_import_info'
p48
(ihappydoclib.parseinfo.imports
ImportInfo
p49
(dp50
S'_named_imports'
p51
(dp52
sS'_straight_imports'
p53
(lp54
sbsg21
g22
sg23
S'"""components(molecule) -> [(atoms, bonds), (atoms, bonds)]\nreturn the connected components of a molecule\n"""'
p55
sg24
S'Components'
p56
sg25
Nsg26
g27
sg28
(dp57
S'include_comments'
p58
I1
sS'cacheFilePrefix'
p59
S'.happydoc.'
p60
sS'useCache'
p61
I1
sS'docStringFormat'
p62
S'StructuredText'
p63
ssg30
g5
sg31
g6
sg32
S''
sbt.