(S'987d495bb28eb98bfd3e77abe5769b8a'
p1
(ihappydoclib.parseinfo.moduleinfo
ModuleInfo
p2
(dp3
S'_namespaces'
p4
((dp5
S'Bond'
p6
(ihappydoclib.parseinfo.classinfo
ClassInfo
p7
(dp8
g4
((dp9
(dp10
S'reset'
p11
(ihappydoclib.parseinfo.functioninfo
FunctionInfo
p12
(dp13
g4
((dp14
(dp15
tp16
sS'_exception_info'
p17
(dp18
sS'_parameter_names'
p19
(S'self'
p20
S'symbol'
p21
S'bondorder'
p22
S'bondtype'
p23
S'fixed'
p24
S'stereo'
p25
tp26
sS'_parameter_info'
p27
(dp28
g25
(NNNtp29
sg24
(NNNtp30
sg22
(NNNtp31
sg20
(NNNtp32
sg23
(NNNtp33
sg21
(NNNtp34
ssS'_filename'
p35
S'../python/frowns/Bond.py'
p36
sS'_docstring'
p37
S''
sS'_name'
p38
g11
sS'_parent'
p39
g7
sS'_comment_info'
p40
(dp41
sS'_configuration_values'
p42
(dp43
sS'_class_info'
p44
g14
sS'_function_info'
p45
g15
sS'_comments'
p46
S''
sbsS'setdbo'
p47
(ihappydoclib.parseinfo.functioninfo
FunctionInfo
p48
(dp49
g4
((dp50
(dp51
tp52
sg17
(dp53
S'FrownsError( "To set double bond order, center bond must be double!" )'
p54
Nssg19
(S'self'
p55
S'bond1'
p56
S'bond2'
p57
S'dboval'
p58
tp59
sg27
(dp60
g55
(NNNtp61
sg58
(NNNtp62
sg56
(NNNtp63
sg57
(NNNtp64
ssg35
g36
sg37
S'Set the double bond orientation for bond1 and bond2\n        based on this bond'
p65
sg38
g47
sg39
g7
sg40
g41
sg42
(dp66
sg44
g50
sg45
g51
sg46
S''
sbsS'xatom'
p67
(ihappydoclib.parseinfo.functioninfo
FunctionInfo
p68
(dp69
g4
((dp70
(dp71
tp72
sg17
(dp73
sg19
(S'self'
p74
S'atom'
p75
tp76
sg27
(dp77
g74
(NNNtp78
sg75
(NNNtp79
ssg35
g36
sg37
S'(atom)->return the atom at the other end of this bond\n        or None if atom is not part of this bond'
p80
sg38
g67
sg39
g7
sg40
g41
sg42
(dp81
sg44
g70
sg45
g71
sg46
S''
sbsS'__repr__'
p82
(ihappydoclib.parseinfo.functioninfo
FunctionInfo
p83
(dp84
g4
((dp85
(dp86
tp87
sg17
(dp88
sg19
(S'self'
p89
tp90
sg27
(dp91
g89
(NNNtp92
ssg35
g36
sg37
S''
sg38
g82
sg39
g7
sg40
g41
sg42
(dp93
sg44
g85
sg45
g86
sg46
S''
sbsS'destroy'
p94
(ihappydoclib.parseinfo.functioninfo
FunctionInfo
p95
(dp96
g4
((dp97
(dp98
tp99
sg17
(dp100
sg19
(S'self'
p101
tp102
sg27
(dp103
g101
(NNNtp104
ssg35
g36
sg37
S''
sg38
g94
sg39
g7
sg40
g41
sg42
(dp105
sg44
g97
sg45
g98
sg46
S''
sbsS'set_symbol'
p106
(ihappydoclib.parseinfo.functioninfo
FunctionInfo
p107
(dp108
g4
((dp109
(dp110
tp111
sg17
(dp112
S'"Deprecated"'
p113
Nssg19
(S'self'
p114
S'symbol'
p115
tp116
sg27
(dp117
g114
(NNNtp118
sg115
(NNNtp119
ssg35
g36
sg37
S'(symbol, bondorder) -> set the bondsymbol\n        of the molecule'
p120
sg38
g106
sg39
g7
sg40
g41
sg42
(dp121
sg44
g109
sg45
g110
sg46
S''
sbsS'set_parent'
p122
(ihappydoclib.parseinfo.functioninfo
FunctionInfo
p123
(dp124
g4
((dp125
(dp126
tp127
sg17
(dp128
sg19
(S'self'
p129
S'parent'
p130
tp131
sg27
(dp132
g129
(NNNtp133
sg130
(NNNtp134
ssg35
g36
sg37
S''
sg38
g122
sg39
g7
sg40
g41
sg42
(dp135
sg44
g125
sg45
g126
sg46
S''
sbsS'__init__'
p136
(ihappydoclib.parseinfo.functioninfo
FunctionInfo
p137
(dp138
g4
((dp139
(dp140
tp141
sg17
(dp142
sg19
(S'self'
p143
S'symbol'
p144
S'bondorder'
p145
S'bondtype'
p146
S'fixed'
p147
S'stereo'
p148
S'generator'
p149
tp150
sg27
(dp151
g148
(I1
S'None'
Ntp152
sg147
(I1
S'0'
Ntp153
sg149
(I1
S'defaultGenerator'
Ntp154
sg145
(I1
S'1'
Ntp155
sg143
(NNNtp156
sg146
(I1
S'1'
Ntp157
sg144
(I1
S'"-"'
Ntp158
ssg35
g36
sg37
S''
sg38
g136
sg39
g7
sg40
g41
sg42
(dp159
sg44
g139
sg45
g140
sg46
S''
sbstp160
sg35
g36
sg37
S''
sS'_class_member_info'
p161
(lp162
S'__slots__'
p163
asg38
g6
sg39
g2
sg40
g41
sS'_base_class_info'
p164
(lp165
S'object'
p166
asg42
(dp167
sg44
g9
sg45
g10
sg46
S''
sbs(dp168
tp169
sS'_import_info'
p170
(ihappydoclib.parseinfo.imports
ImportInfo
p171
(dp172
S'_named_imports'
p173
(dp174
S'IdGenerator'
p175
(lp176
S'defaultGenerator'
p177
assS'_straight_imports'
p178
(lp179
S'weakref'
p180
asbsg35
g36
sg37
S'"""Bond class\nBonds """'
p181
sg38
S'Bond'
p182
sg39
Nsg40
g41
sg42
(dp183
S'include_comments'
p184
I1
sS'cacheFilePrefix'
p185
S'.happydoc.'
p186
sS'useCache'
p187
I1
sS'docStringFormat'
p188
S'StructuredText'
p189
ssg44
g5
sg45
g168
sg46
S''
sbt.