(S'd5e325bab55ef9259fe293a0092874b9'
p1
(ihappydoclib.parseinfo.moduleinfo
ModuleInfo
p2
(dp3
S'_namespaces'
p4
((dp5
S'Molecule'
p6
(ihappydoclib.parseinfo.classinfo
ClassInfo
p7
(dp8
g4
((dp9
(dp10
S'arbsmiles'
p11
(ihappydoclib.parseinfo.functioninfo
FunctionInfo
p12
(dp13
g4
((dp14
(dp15
tp16
sS'_exception_info'
p17
(dp18
sS'_parameter_names'
p19
(S'self'
p20
S'isomeric'
p21
tp22
sS'_parameter_info'
p23
(dp24
g21
(I1
S'0'
Ntp25
sg20
(NNNtp26
ssS'_filename'
p27
S'../python/frowns/Molecule.py'
p28
sS'_docstring'
p29
S''
sS'_name'
p30
g11
sS'_parent'
p31
g7
sS'_comment_info'
p32
(dp33
(S'Molecule'
tp34
S" for now these molecules will be immutable\n Fix Me, don't use _atoms use atom.parent\n"
p35
ssS'_configuration_values'
p36
(dp37
sS'_class_info'
p38
g14
sS'_function_info'
p39
g15
sS'_comments'
p40
S''
sbsS'remove_atom'
p41
(ihappydoclib.parseinfo.functioninfo
FunctionInfo
p42
(dp43
g4
((dp44
(dp45
tp46
sg17
(dp47
S'"Atom not in molecule"'
p48
Nssg19
(S'self'
p49
S'atom'
p50
tp51
sg23
(dp52
g49
(NNNtp53
sg50
(NNNtp54
ssg27
g28
sg29
S''
sg30
g41
sg31
g7
sg32
g33
sg36
(dp55
sg38
g44
sg39
g45
sg40
S''
sbsS'arbsmarts'
p56
(ihappydoclib.parseinfo.functioninfo
FunctionInfo
p57
(dp58
g4
((dp59
(dp60
tp61
sg17
(dp62
sg19
(S'self'
p63
S'isomeric'
p64
tp65
sg23
(dp66
g64
(I1
S'0'
Ntp67
sg63
(NNNtp68
ssg27
g28
sg29
S''
sg30
g56
sg31
g7
sg32
g33
sg36
(dp69
sg38
g59
sg39
g60
sg40
S''
sbsS'add_bond'
p70
(ihappydoclib.parseinfo.functioninfo
FunctionInfo
p71
(dp72
g4
((dp73
(dp74
tp75
sg17
(dp76
S'"Atom", atom1, "is not in the molecule"'
p77
NsS'"Atom", atom2, "is not in the molecule"'
p78
NsS'"Bond", bond, "already has a parent"'
p79
Nssg19
(S'self'
p80
S'bond'
p81
S'atom1'
p82
S'atom2'
p83
tp84
sg23
(dp85
g80
(NNNtp86
sg82
(NNNtp87
sg83
(NNNtp88
sg81
(NNNtp89
ssg27
g28
sg29
S''
sg30
g70
sg31
g7
sg32
g33
sg36
(dp90
sg38
g73
sg39
g74
sg40
S''
sbsS'pruneToAtoms'
p91
(ihappydoclib.parseinfo.functioninfo
FunctionInfo
p92
(dp93
g4
((dp94
(dp95
tp96
sg17
(dp97
sg19
(S'self'
p98
S'atoms'
p99
tp100
sg23
(dp101
g98
(NNNtp102
sg99
(NNNtp103
ssg27
g28
sg29
S'Prune the molecule to the specified atoms\n        bonds will be removed atomatically'
p104
sg30
g91
sg31
g7
sg32
g33
sg36
(dp105
sg38
g94
sg39
g95
sg40
S''
sbsS'cansmiles'
p106
(ihappydoclib.parseinfo.functioninfo
FunctionInfo
p107
(dp108
g4
((dp109
(dp110
tp111
sg17
(dp112
sg19
(S'self'
p113
S'isomeric'
p114
tp115
sg23
(dp116
g114
(I1
S'0'
Ntp117
sg113
(NNNtp118
ssg27
g28
sg29
S''
sg30
g106
sg31
g7
sg32
g33
sg36
(dp119
sg38
g109
sg39
g110
sg40
S''
sbsS'add_atom'
p120
(ihappydoclib.parseinfo.functioninfo
FunctionInfo
p121
(dp122
g4
((dp123
(dp124
tp125
sg17
(dp126
S'"Already have atom", atom'
p127
Nssg19
(S'self'
p128
S'atom'
p129
tp130
sg23
(dp131
g128
(NNNtp132
sg129
(NNNtp133
ssg27
g28
sg29
S''
sg30
g120
sg31
g7
sg32
g33
sg36
(dp134
sg38
g123
sg39
g124
sg40
S''
sbsS'__init__'
p135
(ihappydoclib.parseinfo.functioninfo
FunctionInfo
p136
(dp137
g4
((dp138
(dp139
tp140
sg17
(dp141
sg19
(S'self'
p142
S'atoms'
p143
S'bonds'
p144
tp145
sg23
(dp146
g142
(NNNtp147
sg144
(I1
S'None'
Ntp148
sg143
(I1
S'None'
Ntp149
ssg27
g28
sg29
S''
sg30
g135
sg31
g7
sg32
g33
sg36
(dp150
sg38
g138
sg39
g139
sg40
S''
sbsS'remove_bond'
p151
(ihappydoclib.parseinfo.functioninfo
FunctionInfo
p152
(dp153
g4
((dp154
(dp155
tp156
sg17
(dp157
sg19
(S'self'
p158
S'bond'
p159
tp160
sg23
(dp161
g158
(NNNtp162
sg159
(NNNtp163
ssg27
g28
sg29
S''
sg30
g151
sg31
g7
sg32
g33
sg36
(dp164
sg38
g154
sg39
g155
sg40
S''
sbstp165
sg27
g28
sg29
S''
sS'_class_member_info'
p166
(lp167
sg30
g6
sg31
g2
sg32
g33
sS'_base_class_info'
p168
(lp169
sg36
(dp170
sg38
g9
sg39
g10
sg40
g35
sbs(dp171
tp172
sS'_import_info'
p173
(ihappydoclib.parseinfo.imports
ImportInfo
p174
(dp175
S'_named_imports'
p176
(dp177
S'frowns.Canonicalization.EquivClass'
p178
(lp179
S'compute_equiv_class'
p180
asS'frowns.Canonicalization'
p181
(lp182
S'Disambiguate'
p183
aS'Traverse'
p184
assS'_straight_imports'
p185
(lp186
sbsg27
g28
sg29
S''
sg30
S'Molecule'
p187
sg31
Nsg32
g33
sg36
(dp188
S'include_comments'
p189
I1
sS'cacheFilePrefix'
p190
S'.happydoc.'
p191
sS'useCache'
p192
I1
sS'docStringFormat'
p193
S'StructuredText'
p194
ssg38
g5
sg39
g171
sg40
S''
sbt.