(S'03aa004b57ffd963fe0bdd7617c98db1'
p1
(ihappydoclib.parseinfo.moduleinfo
ModuleInfo
p2
(dp3
S'_namespaces'
p4
((dp5
S'sdin'
p6
(ihappydoclib.parseinfo.classinfo
ClassInfo
p7
(dp8
g4
((dp9
(dp10
S'__iter__'
p11
(ihappydoclib.parseinfo.functioninfo
FunctionInfo
p12
(dp13
g4
((dp14
(dp15
tp16
sS'_exception_info'
p17
(dp18
sS'_parameter_names'
p19
(S'self'
p20
tp21
sS'_parameter_info'
p22
(dp23
g20
(NNNtp24
ssS'_filename'
p25
S'../python/frowns/MDL.py'
p26
sS'_docstring'
p27
S''
sS'_name'
p28
g11
sS'_parent'
p29
g7
sS'_comment_info'
p30
(dp31
sS'_configuration_values'
p32
(dp33
sS'_class_info'
p34
g14
sS'_function_info'
p35
g15
sS'_comments'
p36
S''
sbsS'__init__'
p37
(ihappydoclib.parseinfo.functioninfo
FunctionInfo
p38
(dp39
g4
((dp40
(dp41
tp42
sg17
(dp43
sg19
(S'self'
p44
S'file'
p45
S'transforms'
p46
S'stripHydrogens'
p47
tp48
sg22
(dp49
g44
(NNNtp50
sg46
(I1
S'[ sssr.sssr, BasicAromaticity.aromatize ]'
Ntp51
sg45
(NNNtp52
sg47
(I1
S'1'
Ntp53
ssg25
g26
sg27
S'(file)->molecule\n        Convert a smiles string into a molecule representation'
p54
sg28
g37
sg29
g7
sg30
g31
sg32
(dp55
sg34
g40
sg35
g41
sg36
S''
sbsS'next'
p56
(ihappydoclib.parseinfo.functioninfo
FunctionInfo
p57
(dp58
g4
((dp59
(dp60
tp61
sg17
(dp62
sg19
(S'self'
p63
tp64
sg22
(dp65
g63
(NNNtp66
ssg25
g26
sg27
S'-> returns (frowns, error, mol_record)\n        if frowns is None check the error message'
p67
sg28
g56
sg29
g7
sg30
g31
sg32
(dp68
sg34
g59
sg35
g60
sg36
S''
sbstp69
sg25
g26
sg27
S''
sS'_class_member_info'
p70
(lp71
sg28
g6
sg29
g2
sg30
g31
sS'_base_class_info'
p72
(lp73
sg32
(dp74
sg34
g9
sg35
g10
sg36
S''
sbs(dp75
S'sdIterate'
p76
(ihappydoclib.parseinfo.functioninfo
FunctionInfo
p77
(dp78
g4
((dp79
(dp80
tp81
sg17
(dp82
sg19
(S'file'
p83
tp84
sg22
(dp85
g83
(NNNtp86
ssg25
g26
sg27
S'iterate through an sdfile returning (text, fields)\n    pairs.  Where text is the text of the record and fields\n    is a dictionary of fields in the record\n\n    X requires generators'
p87
sg28
g76
sg29
g2
sg30
g31
sg32
(dp88
sg34
g79
sg35
g80
sg36
S''
sbsS'scan'
p89
(ihappydoclib.parseinfo.functioninfo
FunctionInfo
p90
(dp91
g4
((dp92
(dp93
tp94
sg17
(dp95
sg19
(S'file'
p96
S'blocksize'
p97
tp98
sg22
(dp99
g97
(I1
S'10000'
Ntp100
sg96
(NNNtp101
ssg25
g26
sg27
S'Get the number of molecules in an sd file'
p102
sg28
g89
sg29
g2
sg30
g31
sg32
(dp103
sg34
g92
sg35
g93
sg36
S''
sbstp104
sS'_import_info'
p105
(ihappydoclib.parseinfo.imports
ImportInfo
p106
(dp107
S'_named_imports'
p108
(dp109
S'frowns.FrownsError'
p110
(lp111
S'FrownsError'
p112
asS'__future__'
p113
(lp114
S'generators'
p115
asS'frowns.mdl_parsers'
p116
(lp117
S'sdfile'
p118
aS'sditerator'
p119
asS'frowns.perception'
p120
(lp121
S'RingDetection'
p122
aS'BasicAromaticity'
p123
aS'sssr'
p124
assS'_straight_imports'
p125
(lp126
S'sys'
p127
aS're'
p128
asbsg25
g26
sg27
S''
sg28
S'MDL'
p129
sg29
Nsg30
g31
sg32
(dp130
S'include_comments'
p131
I1
sS'cacheFilePrefix'
p132
S'.happydoc.'
p133
sS'useCache'
p134
I1
sS'docStringFormat'
p135
S'StructuredText'
p136
ssg34
g5
sg35
g75
sg36
S''
sbt.