(S'5d71c5662b075a6af848346f8cdf693d'
p1
(ihappydoclib.parseinfo.moduleinfo
ModuleInfo
p2
(dp3
S'_namespaces'
p4
((dp5
S'IdGenerator'
p6
(ihappydoclib.parseinfo.classinfo
ClassInfo
p7
(dp8
g4
((dp9
(dp10
S'__call__'
p11
(ihappydoclib.parseinfo.functioninfo
FunctionInfo
p12
(dp13
g4
((dp14
(dp15
tp16
sS'_exception_info'
p17
(dp18
sS'_parameter_names'
p19
(S'self'
p20
tp21
sS'_parameter_info'
p22
(dp23
g20
(NNNtp24
ssS'_filename'
p25
S'../python/frowns/IdGenerator.py'
p26
sS'_docstring'
p27
S''
sS'_name'
p28
g11
sS'_parent'
p29
g7
sS'_comment_info'
p30
(dp31
sS'_configuration_values'
p32
(dp33
sS'_class_info'
p34
g14
sS'_function_info'
p35
g15
sS'_comments'
p36
S''
sbsS'__init__'
p37
(ihappydoclib.parseinfo.functioninfo
FunctionInfo
p38
(dp39
g4
((dp40
(dp41
tp42
sg17
(dp43
sg19
(S'self'
p44
S'start'
p45
tp46
sg22
(dp47
g45
(I1
S'1'
Ntp48
sg44
(NNNtp49
ssg25
g26
sg27
S''
sg28
g37
sg29
g7
sg30
g31
sg32
(dp50
sg34
g40
sg35
g41
sg36
S''
sbstp51
sg25
g26
sg27
S''
sS'_class_member_info'
p52
(lp53
sg28
g6
sg29
g2
sg30
g31
sS'_base_class_info'
p54
(lp55
sg32
(dp56
sg34
g9
sg35
g10
sg36
S''
sbs(dp57
S'test'
p58
(ihappydoclib.parseinfo.functioninfo
FunctionInfo
p59
(dp60
g4
((dp61
(dp62
tp63
sg17
(dp64
sg19
(tsg22
(dp65
sg25
g26
sg27
S''
sg28
g58
sg29
g2
sg30
g31
sg32
(dp66
sg34
g61
sg35
g62
sg36
S''
sbstp67
sS'_import_info'
p68
(ihappydoclib.parseinfo.imports
ImportInfo
p69
(dp70
S'_named_imports'
p71
(dp72
sS'_straight_imports'
p73
(lp74
sbsg25
g26
sg27
S'"""IdGenerator\nA simple class to provide a sequence of integers that can be used\nfor identification purposes\n\ngenerator = IdGenerator()\ngenerator() -> returns 0\ngenerator() -> returns 1\n...\n\ngenerator = IdGenerator(1000)\ngenerator() -> returns 1000\ngenerator() -> returns 1001\n"""'
p75
sg28
S'IdGenerator'
p76
sg29
Nsg30
g31
sg32
(dp77
S'include_comments'
p78
I1
sS'cacheFilePrefix'
p79
S'.happydoc.'
p80
sS'useCache'
p81
I1
sS'docStringFormat'
p82
S'StructuredText'
p83
ssg34
g5
sg35
g57
sg36
S''
sbt.