(S'e7edb05d88e9af544549ccb02cc9dd26'
p1
(ihappydoclib.parseinfo.moduleinfo
ModuleInfo
p2
(dp3
S'_namespaces'
p4
((dp5
S'Atom'
p6
(ihappydoclib.parseinfo.classinfo
ClassInfo
p7
(dp8
g4
((dp9
(dp10
S'chival'
p11
(ihappydoclib.parseinfo.functioninfo
FunctionInfo
p12
(dp13
g4
((dp14
(dp15
tp16
sS'_exception_info'
p17
(dp18
sS'_parameter_names'
p19
(S'self'
p20
S'bonds'
p21
tp22
sS'_parameter_info'
p23
(dp24
g20
(NNNtp25
sg21
(NNNtp26
ssS'_filename'
p27
S'../python/frowns/Atom.py'
p28
sS'_docstring'
p29
S'compute the chiral value around an atom given a list of bonds'
p30
sS'_name'
p31
g11
sS'_parent'
p32
g7
sS'_comment_info'
p33
(dp34
sS'_configuration_values'
p35
(dp36
sS'_class_info'
p37
g14
sS'_function_info'
p38
g15
sS'_comments'
p39
S''
sbsS'setchival'
p40
(ihappydoclib.parseinfo.functioninfo
FunctionInfo
p41
(dp42
g4
((dp43
(dp44
tp45
sg17
(dp46
S'FrownsError( "Need to have an explicit hydrogen when specifying " "chirality with less than three bonds" )'
p47
NsS'AtomError( "Specified bonds to assign chirality are not attatched to atom" )'
p48
NsS'AtomError( "The order of all bonds must be specified" )'
p49
Nssg19
(S'self'
p50
S'bondorder'
p51
S'rotation'
p52
tp53
sg23
(dp54
g51
(NNNtp55
sg50
(NNNtp56
sg52
(NNNtp57
ssg27
g28
sg29
S'compute chiral ordering of surrounding atoms'
p58
sg31
g40
sg32
g7
sg33
g34
sg35
(dp59
sg37
g43
sg38
g44
sg39
S''
sbsS'sumBondOrders'
p60
(ihappydoclib.parseinfo.functioninfo
FunctionInfo
p61
(dp62
g4
((dp63
(dp64
tp65
sg17
(dp66
sg19
(S'self'
p67
tp68
sg23
(dp69
g67
(NNNtp70
ssg27
g28
sg29
S''
sg31
g60
sg32
g7
sg33
g34
sg35
(dp71
sg37
g63
sg38
g64
sg39
S''
sbsS'__repr__'
p72
(ihappydoclib.parseinfo.functioninfo
FunctionInfo
p73
(dp74
g4
((dp75
(dp76
tp77
sg17
(dp78
sg19
(S'self'
p79
tp80
sg23
(dp81
g79
(NNNtp82
ssg27
g28
sg29
S''
sg31
g72
sg32
g7
sg33
g34
sg35
(dp83
sg37
g75
sg38
g76
sg39
S''
sbsS'destroy'
p84
(ihappydoclib.parseinfo.functioninfo
FunctionInfo
p85
(dp86
g4
((dp87
(dp88
tp89
sg17
(dp90
sg19
(S'self'
p91
tp92
sg23
(dp93
g91
(NNNtp94
ssg27
g28
sg29
S''
sg31
g84
sg32
g7
sg33
g34
sg35
(dp95
sg37
g87
sg38
g88
sg39
S''
sbsS'set_symbol'
p96
(ihappydoclib.parseinfo.functioninfo
FunctionInfo
p97
(dp98
g4
((dp99
(dp100
tp101
sg17
(dp102
sg19
(S'self'
p103
S'symbol'
p104
tp105
sg23
(dp106
g103
(NNNtp107
sg104
(NNNtp108
ssg27
g28
sg29
S''
sg31
g96
sg32
g7
sg33
g34
sg35
(dp109
sg37
g99
sg38
g100
sg39
S''
sbsS'findbond'
p110
(ihappydoclib.parseinfo.functioninfo
FunctionInfo
p111
(dp112
g4
((dp113
(dp114
tp115
sg17
(dp116
sg19
(S'self'
p117
S'otherAtom'
p118
tp119
sg23
(dp120
g117
(NNNtp121
sg118
(NNNtp122
ssg27
g28
sg29
S''
sg31
g110
sg32
g7
sg33
g34
sg35
(dp123
sg37
g113
sg38
g114
sg39
S''
sbsS'__init__'
p124
(ihappydoclib.parseinfo.functioninfo
FunctionInfo
p125
(dp126
g4
((dp127
(dp128
tp129
sg17
(dp130
sg19
(S'self'
p131
S'generator'
p132
tp133
sg23
(dp134
g131
(NNNtp135
sg132
(I1
S'defaultGenerator'
Ntp136
ssg27
g28
sg29
S''
sg31
g124
sg32
g7
sg33
g34
sg35
(dp137
sg37
g127
sg38
g128
sg39
S''
sbstp138
sg27
g28
sg29
S''
sS'_class_member_info'
p139
(lp140
S'__slots__'
p141
asg31
g6
sg32
g2
sg33
g34
sS'_base_class_info'
p142
(lp143
S'object'
p144
asg35
(dp145
sg37
g9
sg38
g10
sg39
S''
sbs(dp146
tp147
sS'_import_info'
p148
(ihappydoclib.parseinfo.imports
ImportInfo
p149
(dp150
S'_named_imports'
p151
(dp152
S'FrownsError'
p153
(lp154
S'FrownsError'
p155
asS'Chirality'
p156
(lp157
S'TetraHedral'
p158
asS'IdGenerator'
p159
(lp160
S'defaultGenerator'
p161
asS'frowns.Objects'
p162
(lp163
S'FrownTypes'
p164
assS'_straight_imports'
p165
(lp166
sbsg27
g28
sg29
S''
sg31
S'Atom'
p167
sg32
Nsg33
g34
sg35
(dp168
S'include_comments'
p169
I1
sS'cacheFilePrefix'
p170
S'.happydoc.'
p171
sS'useCache'
p172
I1
sS'docStringFormat'
p173
S'StructuredText'
p174
ssg37
g5
sg38
g146
sg39
S''
sbt.