(S'7e9b4f0be06980a021b6af63add53fe2'
p1
(ihappydoclib.parseinfo.moduleinfo
ModuleInfo
p2
(dp3
S'_namespaces'
p4
((dp5
(dp6
tp7
sS'_import_info'
p8
(ihappydoclib.parseinfo.imports
ImportInfo
p9
(dp10
S'_named_imports'
p11
(dp12
S'distutils.core'
p13
(lp14
S'setup'
p15
aS'Extension'
p16
assS'_straight_imports'
p17
(lp18
S'sys'
p19
aS'os'
p20
asbsS'_filename'
p21
S'../python/frowns/setup.py'
p22
sS'_docstring'
p23
S''
sS'_name'
p24
S'setup'
p25
sS'_parent'
p26
NsS'_comment_info'
p27
(dp28
sS'_configuration_values'
p29
(dp30
S'include_comments'
p31
I1
sS'cacheFilePrefix'
p32
S'.happydoc.'
p33
sS'useCache'
p34
I1
sS'docStringFormat'
p35
S'StructuredText'
p36
ssS'_class_info'
p37
g5
sS'_function_info'
p38
g6
sS'_comments'
p39
S''
sbt.