(S'177484662cf0ebe21ff527abda75c184'
p1
(ihappydoclib.parseinfo.moduleinfo
ModuleInfo
p2
(dp3
S'_namespaces'
p4
((dp5
(dp6
S'smilin'
p7
(ihappydoclib.parseinfo.functioninfo
FunctionInfo
p8
(dp9
g4
((dp10
(dp11
tp12
sS'_exception_info'
p13
(dp14
sS'_parameter_names'
p15
(S'smiles'
p16
S'transforms'
p17
S'enable_vfgraph'
p18
tp19
sS'_parameter_info'
p20
(dp21
g16
(NNNtp22
sg17
(I1
S'[ sssr.sssr, BasicAromaticity.aromatize ]'
Ntp23
sg18
(I1
S'0'
Ntp24
ssS'_filename'
p25
S'../python/frowns/Smiles.py'
p26
sS'_docstring'
p27
S'(smiles)->molecule\n    Convert a smiles string into a molecule representation'
p28
sS'_name'
p29
g7
sS'_parent'
p30
g2
sS'_comment_info'
p31
(dp32
sS'_configuration_values'
p33
(dp34
sS'_class_info'
p35
g10
sS'_function_info'
p36
g11
sS'_comments'
p37
S''
sbstp38
sS'_import_info'
p39
(ihappydoclib.parseinfo.imports
ImportInfo
p40
(dp41
S'_named_imports'
p42
(dp43
S'perception'
p44
(lp45
S'RingDetection'
p46
aS'BasicAromaticity'
p47
aS'sssr'
p48
asS'smiles_parsers'
p49
(lp50
S'Smiles'
p51
aS'BuildMol'
p52
assS'_straight_imports'
p53
(lp54
sbsg25
g26
sg27
S''
sg29
S'Smiles'
p55
sg30
Nsg31
g32
sg33
(dp56
S'include_comments'
p57
I1
sS'cacheFilePrefix'
p58
S'.happydoc.'
p59
sS'useCache'
p60
I1
sS'docStringFormat'
p61
S'StructuredText'
p62
ssg35
g5
sg36
g6
sg37
S''
sbt.