(S'5fe0f19d81d9f5b3ac755c2f6af561ff'
p1
(ihappydoclib.parseinfo.moduleinfo
ModuleInfo
p2
(dp3
S'_namespaces'
p4
((dp5
S'T'
(ihappydoclib.parseinfo.classinfo
ClassInfo
p6
(dp7
g4
((dp8
(dp9
S'getChirality'
p10
(ihappydoclib.parseinfo.functioninfo
FunctionInfo
p11
(dp12
g4
((dp13
(dp14
tp15
sS'_exception_info'
p16
(dp17
sS'_parameter_names'
p18
(S'self'
p19
S'order'
p20
tp21
sS'_parameter_info'
p22
(dp23
g19
(NNNtp24
sg20
(NNNtp25
ssS'_filename'
p26
S'../python/frowns/TetraHedralChirality.py'
p27
sS'_docstring'
p28
S'(order)->what is the chirality of a given order of\n        atoms?'
p29
sS'_name'
p30
g10
sS'_parent'
p31
g6
sS'_comment_info'
p32
(dp33
sS'_configuration_values'
p34
(dp35
sS'_class_info'
p36
g13
sS'_function_info'
p37
g14
sS'_comments'
p38
S''
sbsS'__init__'
p39
(ihappydoclib.parseinfo.functioninfo
FunctionInfo
p40
(dp41
g4
((dp42
(dp43
tp44
sg16
(dp45
sg18
(S'self'
p46
S'order'
p47
S'chirality'
p48
tp49
sg22
(dp50
g46
(NNNtp51
sg48
(NNNtp52
sg47
(NNNtp53
ssg26
g27
sg28
S''
sg30
g39
sg31
g6
sg32
g33
sg34
(dp54
sg36
g42
sg37
g43
sg38
S''
sbstp55
sg26
g27
sg28
S''
sS'_class_member_info'
p56
(lp57
sg30
S'T'
sg31
g2
sg32
g33
sS'_base_class_info'
p58
(lp59
sg34
(dp60
sg36
g8
sg37
g9
sg38
S''
sbs(dp61
tp62
sS'_import_info'
p63
(ihappydoclib.parseinfo.imports
ImportInfo
p64
(dp65
S'_named_imports'
p66
(dp67
sS'_straight_imports'
p68
(lp69
sbsg26
g27
sg28
S''
sg30
S'TetraHedralChirality'
p70
sg31
Nsg32
g33
sg34
(dp71
S'include_comments'
p72
I1
sS'cacheFilePrefix'
p73
S'.happydoc.'
p74
sS'useCache'
p75
I1
sS'docStringFormat'
p76
S'StructuredText'
p77
ssg36
g5
sg37
g61
sg38
S''
sbt.