(S'1b5fa381598a59e3434dda4da80191d5'
p1
(ihappydoclib.parseinfo.moduleinfo
ModuleInfo
p2
(dp3
S'_namespaces'
p4
((dp5
S'FrownsError'
p6
(ihappydoclib.parseinfo.classinfo
ClassInfo
p7
(dp8
g4
((dp9
(dp10
tp11
sS'_filename'
p12
S'../python/frowns/FrownsError.py'
p13
sS'_docstring'
p14
S''
sS'_class_member_info'
p15
(lp16
sS'_name'
p17
g6
sS'_parent'
p18
g2
sS'_comment_info'
p19
(dp20
(S'FrownsError'
tp21
S' A handle little Frowns exception error\n  that frowns code can throw\n'
p22
ssS'_base_class_info'
p23
(lp24
S'Exception'
p25
asS'_configuration_values'
p26
(dp27
sS'_class_info'
p28
g9
sS'_function_info'
p29
g10
sS'_comments'
p30
g22
sbs(dp31
tp32
sS'_import_info'
p33
(ihappydoclib.parseinfo.imports
ImportInfo
p34
(dp35
S'_named_imports'
p36
(dp37
sS'_straight_imports'
p38
(lp39
sbsg12
g13
sg14
S''
sg17
S'FrownsError'
p40
sg18
Nsg19
g20
sg26
(dp41
S'include_comments'
p42
I1
sS'cacheFilePrefix'
p43
S'.happydoc.'
p44
sS'useCache'
p45
I1
sS'docStringFormat'
p46
S'StructuredText'
p47
ssg28
g5
sg29
g31
sg30
S''
sbt.