(S'de6eb937edbc35ceae65a5663d6b54b1'
p1
(ihappydoclib.parseinfo.moduleinfo
ModuleInfo
p2
(dp3
S'_namespaces'
p4
((dp5
S'CycleError'
p6
(ihappydoclib.parseinfo.classinfo
ClassInfo
p7
(dp8
g4
((dp9
(dp10
tp11
sS'_filename'
p12
S'../python/frowns/Cycle.py'
p13
sS'_docstring'
p14
S''
sS'_class_member_info'
p15
(lp16
sS'_name'
p17
g6
sS'_parent'
p18
g2
sS'_comment_info'
p19
(dp20
sS'_base_class_info'
p21
(lp22
S'Exception'
p23
asS'_configuration_values'
p24
(dp25
sS'_class_info'
p26
g9
sS'_function_info'
p27
g10
sS'_comments'
p28
S''
sbsS'Cycle'
p29
(ihappydoclib.parseinfo.classinfo
ClassInfo
p30
(dp31
g4
((dp32
(dp33
S'set_aromatic'
p34
(ihappydoclib.parseinfo.functioninfo
FunctionInfo
p35
(dp36
g4
((dp37
(dp38
tp39
sS'_exception_info'
p40
(dp41
sS'_parameter_names'
p42
(S'self'
p43
tp44
sS'_parameter_info'
p45
(dp46
g43
(NNNtp47
ssg12
g13
sg14
S'set the cycle to be an aromatic ring'
p48
sg17
g34
sg18
g30
sg19
g20
sg24
(dp49
sg26
g37
sg27
g38
sg28
S''
sbsS'clone'
p50
(ihappydoclib.parseinfo.functioninfo
FunctionInfo
p51
(dp52
g4
((dp53
(dp54
tp55
sg40
(dp56
sg42
(S'self'
p57
tp58
sg45
(dp59
g57
(NNNtp60
ssg12
g13
sg14
S''
sg17
g50
sg18
g30
sg19
g20
sg24
(dp61
sg26
g53
sg27
g54
sg28
S''
sbsS'rotate'
p62
(ihappydoclib.parseinfo.functioninfo
FunctionInfo
p63
(dp64
g4
((dp65
(dp66
tp67
sg40
(dp68
S'CycleError("atom %s not in cycle" %( atom ) )'
p69
Nssg42
(S'self'
p70
S'atom'
p71
tp72
sg45
(dp73
g70
(NNNtp74
sg71
(NNNtp75
ssg12
g13
sg14
S'(atom)->start the cycle at position atom, assumes\n        that atom is in the cycle'
p76
sg17
g62
sg18
g30
sg19
g20
sg24
(dp77
sg26
g65
sg27
g66
sg28
S''
sbsS'__len__'
p78
(ihappydoclib.parseinfo.functioninfo
FunctionInfo
p79
(dp80
g4
((dp81
(dp82
tp83
sg40
(dp84
sg42
(S'self'
p85
tp86
sg45
(dp87
g85
(NNNtp88
ssg12
g13
sg14
S''
sg17
g78
sg18
g30
sg19
g20
sg24
(dp89
sg26
g81
sg27
g82
sg28
S''
sbsS'__init__'
p90
(ihappydoclib.parseinfo.functioninfo
FunctionInfo
p91
(dp92
g4
((dp93
(dp94
tp95
sg40
(dp96
sg42
(S'self'
p97
S'atoms'
p98
S'bonds'
p99
S'aromatic'
p100
tp101
sg45
(dp102
g97
(NNNtp103
sg99
(NNNtp104
sg100
(I1
S'0'
Ntp105
sg98
(NNNtp106
ssg12
g13
sg14
S'(atoms)->create a cycle object\n        assumes that the atoms are in traversal order around the ring.\n        That is [a1, a2, a3] means that there is a bond in the cycle\n        between a1 and a2 and a2 and a3 and a3 and a1'
p107
sg17
g90
sg18
g30
sg19
g20
sg24
(dp108
sg26
g93
sg27
g94
sg28
S''
sbstp109
sg12
g13
sg14
S''
sg15
(lp110
sg17
g29
sg18
g2
sg19
g20
sg21
(lp111
sg24
(dp112
sg26
g32
sg27
g33
sg28
S''
sbs(dp113
tp114
sS'_import_info'
p115
(ihappydoclib.parseinfo.imports
ImportInfo
p116
(dp117
S'_named_imports'
p118
(dp119
sS'_straight_imports'
p120
(lp121
sbsg12
g13
sg14
S'"""Cycle(atoms) -> cycle object for a ring.\n\n   cycle.atoms -> atoms around a ring\n   cycle.bonds -> bonds aroung a ring\n\n   cycle.rotate(atom) -> rotate the ring so that atom is in front\n"""'
p122
sg17
S'Cycle'
p123
sg18
Nsg19
g20
sg24
(dp124
S'include_comments'
p125
I1
sS'cacheFilePrefix'
p126
S'.happydoc.'
p127
sS'useCache'
p128
I1
sS'docStringFormat'
p129
S'StructuredText'
p130
ssg26
g5
sg27
g113
sg28
S''
sbt.