(S'b1f3ab0c48937f602e6365b60c61aae0'
p1
(ihappydoclib.parseinfo.moduleinfo
ModuleInfo
p2
(dp3
S'_namespaces'
p4
((dp5
(dp6
S'atoms_are_aromatic'
p7
(ihappydoclib.parseinfo.functioninfo
FunctionInfo
p8
(dp9
g4
((dp10
(dp11
tp12
sS'_exception_info'
p13
(dp14
sS'_parameter_names'
p15
(S'atoms'
p16
tp17
sS'_parameter_info'
p18
(dp19
g16
(NNNtp20
ssS'_filename'
p21
S'../python/frowns/perception/TrustedSmiles.py'
p22
sS'_docstring'
p23
S''
sS'_name'
p24
g7
sS'_parent'
p25
g2
sS'_comment_info'
p26
(dp27
sS'_configuration_values'
p28
(dp29
sS'_class_info'
p30
g10
sS'_function_info'
p31
g11
sS'_comments'
p32
S''
sbsS'bonds_are_unspecified_or_aromatic'
p33
(ihappydoclib.parseinfo.functioninfo
FunctionInfo
p34
(dp35
g4
((dp36
(dp37
tp38
sg13
(dp39
sg15
(S'bonds'
p40
tp41
sg18
(dp42
g40
(NNNtp43
ssg21
g22
sg23
S''
sg24
g33
sg25
g2
sg26
g27
sg28
(dp44
sg30
g36
sg31
g37
sg32
S''
sbsS'trusted_smiles'
p45
(ihappydoclib.parseinfo.functioninfo
FunctionInfo
p46
(dp47
g4
((dp48
(dp49
tp50
sg13
(dp51
sg15
(S'molecule'
p52
tp53
sg18
(dp54
g52
(NNNtp55
ssg21
g22
sg23
S'(molecule)->molecule\n    Trust the original smiles string in order to generate the proper\n    aromaticity.  Will produce odd results with some smiles strings\n    produced by early versions of Daylight (pre 4.71)'
p56
sg24
g45
sg25
g2
sg26
g27
sg28
(dp57
sg30
g48
sg31
g49
sg32
S''
sbstp58
sS'_import_info'
p59
(ihappydoclib.parseinfo.imports
ImportInfo
p60
(dp61
S'_named_imports'
p62
(dp63
sS'_straight_imports'
p64
(lp65
sbsg21
g22
sg23
S'"""TrustedSmiles\n\nexports\n  molecule = trusted_smiles(molecule)\n    returns a molecule that trusts the original input for the\n    declaration of aromaticity.\n\n\n This is a really stupid algorithm to accept standard smiles input\n and basically trust it to be correct.\n\n Essentially all non specified bonds are converted to either\n aromatic or single bonds depending on two things\n\n An aromatic bond must:\n  1 be between two aromatic atoms\n  2 must be in a ring with either unspecified\n    bonds or aromatic bonds.\n\n Otherwise it is considered a single bond.\n\n BUG\n There is one class of degenerate cases for this stupid\n algorithm for pre Daylight 4.71 output\n\n\n     ___\n    / o \\       Imagine three aromatic rings surrounding\n    \\___/        a non aromatic ring\n ___/   \\___    If the non aromatic ring doesn\'t have it\'s\n/ o \\___/ o \\    single bonds specified, then the single bonds\n\\___/   \\___/    and hence the inner ring will be considered aromatic.\n\n This algorithm really is for testing purposes, so don\'t get your\n knickers in a bunch :)\n"""'
p66
sg24
S'TrustedSmiles'
p67
sg25
Nsg26
g27
sg28
(dp68
S'include_comments'
p69
I1
sS'cacheFilePrefix'
p70
S'.happydoc.'
p71
sS'useCache'
p72
I1
sS'docStringFormat'
p73
S'StructuredText'
p74
ssg30
g5
sg31
g6
sg32
S''
sbt.