(S'dded48b69c66d66aebb132515528b2ed'
p1
(ihappydoclib.parseinfo.moduleinfo
ModuleInfo
p2
(dp3
S'_namespaces'
p4
((dp5
S'kjSet'
p6
(ihappydoclib.parseinfo.classinfo
ClassInfo
p7
(dp8
g4
((dp9
(dp10
S'__getitem__'
p11
(ihappydoclib.parseinfo.functioninfo
FunctionInfo
p12
(dp13
g4
((dp14
(dp15
tp16
sS'_exception_info'
p17
(dp18
S'KeyError, "item not in set"'
p19
NssS'_parameter_names'
p20
(S'self'
p21
S'item'
p22
tp23
sS'_parameter_info'
p24
(dp25
g22
(NNNtp26
sg21
(NNNtp27
ssS'_filename'
p28
S'../python/frowns/perception/kjbuckets0.py'
p29
sS'_docstring'
p30
S''
sS'_name'
p31
g11
sS'_parent'
p32
g7
sS'_comment_info'
p33
(dp34
(S'kjGraph'
S'ident'
tp35
S' ????\n'
p36
ssS'_configuration_values'
p37
(dp38
sS'_class_info'
p39
g14
sS'_function_info'
p40
g15
sS'_comments'
p41
S''
sbsS'_setelts'
p42
(ihappydoclib.parseinfo.functioninfo
FunctionInfo
p43
(dp44
g4
((dp45
(dp46
tp47
sg17
(dp48
sg20
(S'self'
p49
S'items'
p50
tp51
sg24
(dp52
g50
(NNNtp53
sg49
(NNNtp54
ssg28
g29
sg30
S''
sg31
g42
sg32
g7
sg33
g34
sg37
(dp55
sg39
g45
sg40
g46
sg41
S''
sbsS'add'
p56
(ihappydoclib.parseinfo.functioninfo
FunctionInfo
p57
(dp58
g4
((dp59
(dp60
tp61
sg17
(dp62
S'ValueError, "table hashed, immutable"'
p63
Nssg20
(S'self'
p64
S'elt'
p65
tp66
sg24
(dp67
g64
(NNNtp68
sg65
(NNNtp69
ssg28
g29
sg30
S''
sg31
g56
sg32
g7
sg33
g34
sg37
(dp70
sg39
g59
sg40
g60
sg41
S''
sbsS'__setitem__'
p71
(ihappydoclib.parseinfo.functioninfo
FunctionInfo
p72
(dp73
g4
((dp74
(dp75
tp76
sg17
(dp77
S'ValueError, "table hashed, immutable"'
p78
Nssg20
(S'self'
p79
S'item'
p80
S'ignore'
p81
tp82
sg24
(dp83
g81
(NNNtp84
sg80
(NNNtp85
sg79
(NNNtp86
ssg28
g29
sg30
S''
sg31
g71
sg32
g7
sg33
g34
sg37
(dp87
sg39
g74
sg40
g75
sg41
S''
sbsS'__repr__'
p88
(ihappydoclib.parseinfo.functioninfo
FunctionInfo
p89
(dp90
g4
((dp91
(dp92
tp93
sg17
(dp94
sg20
(S'self'
p95
tp96
sg24
(dp97
g95
(NNNtp98
ssg28
g29
sg30
S''
sg31
g88
sg32
g7
sg33
g34
sg37
(dp99
sg39
g91
sg40
g92
sg41
S''
sbsS'__add__'
p100
(ihappydoclib.parseinfo.functioninfo
FunctionInfo
p101
(dp102
g4
((dp103
(dp104
tp105
sg17
(dp106
sg20
(S's'
S'o'
tp107
sg24
(dp108
S's'
(NNNtp109
sS'o'
(NNNtp110
ssg28
g29
sg30
S''
sg31
g100
sg32
g7
sg33
g34
sg37
(dp111
sg39
g103
sg40
g104
sg41
S''
sbsS'__and__'
p112
(ihappydoclib.parseinfo.functioninfo
FunctionInfo
p113
(dp114
g4
((dp115
(dp116
tp117
sg17
(dp118
S'ValueError, "kjSet only intersects with kjTable"'
p119
Nssg20
(S's'
S'o'
tp120
sg24
(dp121
S's'
(NNNtp122
sS'o'
(NNNtp123
ssg28
g29
sg30
S''
sg31
g112
sg32
g7
sg33
g34
sg37
(dp124
sg39
g115
sg40
g116
sg41
S''
sbsS'__sub__'
p125
(ihappydoclib.parseinfo.functioninfo
FunctionInfo
p126
(dp127
g4
((dp128
(dp129
tp130
sg17
(dp131
sg20
(S's'
S'o'
tp132
sg24
(dp133
S's'
(NNNtp134
sS'o'
(NNNtp135
ssg28
g29
sg30
S''
sg31
g125
sg32
g7
sg33
g34
sg37
(dp136
sg39
g128
sg40
g129
sg41
S''
sbsS'_pairs'
p137
(ihappydoclib.parseinfo.functioninfo
FunctionInfo
p138
(dp139
g4
((dp140
(dp141
tp142
sg17
(dp143
sg20
(S'self'
p144
S'justtot'
p145
tp146
sg24
(dp147
g145
(I1
S'0'
Ntp148
sg144
(NNNtp149
ssg28
g29
sg30
S''
sg31
g137
sg32
g7
sg33
g34
sg37
(dp150
sg39
g140
sg40
g141
sg41
S''
sbsS'__init__'
p151
(ihappydoclib.parseinfo.functioninfo
FunctionInfo
p152
(dp153
g4
((dp154
(dp155
tp156
sg17
(dp157
S'ValueError, "at most one argument supported"'
p158
NsS'ValueError, "kjSet from kjTable, int, list, tuple only"'
p159
Nssg20
(S'self'
p160
S'*args'
p161
tp162
sg24
(dp163
g161
(NNNtp164
sg160
(NNNtp165
ssg28
g29
sg30
S''
sg31
g151
sg32
g7
sg33
g34
sg37
(dp166
sg39
g154
sg40
g155
sg41
S''
sbsS'__mul__'
p167
(ihappydoclib.parseinfo.functioninfo
FunctionInfo
p168
(dp169
g4
((dp170
(dp171
tp172
sg17
(dp173
sg20
(S's'
S'o'
tp174
sg24
(dp175
S's'
(NNNtp176
sS'o'
(NNNtp177
ssg28
g29
sg30
S''
sg31
g167
sg32
g7
sg33
g34
sg37
(dp178
sg39
g170
sg40
g171
sg41
S''
sbstp179
sg28
g29
sg30
S''
sS'_class_member_info'
p180
(lp181
S'__or__'
p182
aS'values'
p183
aS'member'
p184
aS'items'
p185
asg31
g6
sg32
g2
sg33
g34
sS'_base_class_info'
p186
(lp187
S'kjDict'
p188
asg37
(dp189
sg39
g9
sg40
g10
sg41
S''
sbsS'kjDict'
p190
(ihappydoclib.parseinfo.classinfo
ClassInfo
p191
(dp192
g4
((dp193
(dp194
S'neighbors'
p195
(ihappydoclib.parseinfo.functioninfo
FunctionInfo
p196
(dp197
g4
((dp198
(dp199
tp200
sg17
(dp201
sg20
(S'self'
p202
S'k'
tp203
sg24
(dp204
g202
(NNNtp205
sS'k'
(NNNtp206
ssg28
g29
sg30
S''
sg31
g195
sg32
g191
sg33
g34
sg37
(dp207
sg39
g198
sg40
g199
sg41
S''
sbsS'subset'
p208
(ihappydoclib.parseinfo.functioninfo
FunctionInfo
p209
(dp210
g4
((dp211
(dp212
tp213
sg17
(dp214
S'ValueError, "kjDict subset test only for kjTable"'
p215
Nssg20
(S's'
S'o'
tp216
sg24
(dp217
S's'
(NNNtp218
sS'o'
(NNNtp219
ssg28
g29
sg30
S''
sg31
g208
sg32
g191
sg33
g34
sg37
(dp220
sg39
g211
sg40
g212
sg41
S''
sbsS'dump'
p221
(ihappydoclib.parseinfo.functioninfo
FunctionInfo
p222
(dp223
g4
((dp224
(dp225
tp226
sg17
(dp227
sg20
(S'self'
p228
S'dumper'
p229
tp230
sg24
(dp231
g228
(NNNtp232
sg229
(NNNtp233
ssg28
g29
sg30
S''
sg31
g221
sg32
g191
sg33
g34
sg37
(dp234
sg39
g224
sg40
g225
sg41
S''
sbsS'has_key'
p235
(ihappydoclib.parseinfo.functioninfo
FunctionInfo
p236
(dp237
g4
((dp238
(dp239
tp240
sg17
(dp241
sg20
(S'self'
p242
S'k'
tp243
sg24
(dp244
g242
(NNNtp245
sS'k'
(NNNtp246
ssg28
g29
sg30
S''
sg31
g235
sg32
g191
sg33
g34
sg37
(dp247
sg39
g238
sg40
g239
sg41
S''
sbsS'__and__'
p248
(ihappydoclib.parseinfo.functioninfo
FunctionInfo
p249
(dp250
g4
((dp251
(dp252
tp253
sg17
(dp254
sg20
(S's'
S'o'
tp255
sg24
(dp256
S's'
(NNNtp257
sS'o'
(NNNtp258
ssg28
g29
sg30
S''
sg31
g248
sg32
g191
sg33
g34
sg37
(dp259
sg39
g251
sg40
g252
sg41
S''
sbsS'choose_key'
p260
(ihappydoclib.parseinfo.functioninfo
FunctionInfo
p261
(dp262
g4
((dp263
(dp264
tp265
sg17
(dp266
sg20
(S'self'
p267
tp268
sg24
(dp269
g267
(NNNtp270
ssg28
g29
sg30
S''
sg31
g260
sg32
g191
sg33
g34
sg37
(dp271
sg39
g263
sg40
g264
sg41
S''
sbsS'_pairs'
p272
(ihappydoclib.parseinfo.functioninfo
FunctionInfo
p273
(dp274
g4
((dp275
(dp276
tp277
sg17
(dp278
sg20
(S'self'
p279
S'justtot'
p280
tp281
sg24
(dp282
g280
(I1
S'0'
Ntp283
sg279
(NNNtp284
ssg28
g29
sg30
S''
sg31
g272
sg32
g191
sg33
g34
sg37
(dp285
sg39
g275
sg40
g276
sg41
S''
sbsS'__init__'
p286
(ihappydoclib.parseinfo.functioninfo
FunctionInfo
p287
(dp288
g4
((dp289
(dp290
tp291
sg17
(dp292
S'ValueError, "kjDict initializes only from list, tuple, kjTable, or int"'
p293
Nssg20
(S'self'
p294
S'*args'
p295
tp296
sg24
(dp297
g295
(NNNtp298
sg294
(NNNtp299
ssg28
g29
sg30
S''
sg31
g286
sg32
g191
sg33
g34
sg37
(dp300
sg39
g289
sg40
g290
sg41
S''
sbsS'__invert__'
p301
(ihappydoclib.parseinfo.functioninfo
FunctionInfo
p302
(dp303
g4
((dp304
(dp305
tp306
sg17
(dp307
sg20
(S'self'
p308
tp309
sg24
(dp310
g308
(NNNtp311
ssg28
g29
sg30
S''
sg31
g301
sg32
g191
sg33
g34
sg37
(dp312
sg39
g304
sg40
g305
sg41
S''
sbsS'delete_arc'
p313
(ihappydoclib.parseinfo.functioninfo
FunctionInfo
p314
(dp315
g4
((dp316
(dp317
tp318
sg17
(dp319
S'KeyError, "pair not in table"'
p320
Nssg20
(S'self'
p321
S'k'
S'v'
tp322
sg24
(dp323
g321
(NNNtp324
sS'k'
(NNNtp325
sS'v'
(NNNtp326
ssg28
g29
sg30
S''
sg31
g313
sg32
g191
sg33
g34
sg37
(dp327
sg39
g316
sg40
g317
sg41
S''
sbsS'__cmp__'
p328
(ihappydoclib.parseinfo.functioninfo
FunctionInfo
p329
(dp330
g4
((dp331
(dp332
tp333
sg17
(dp334
sg20
(S's'
S'o'
tp335
sg24
(dp336
S's'
(NNNtp337
sS'o'
(NNNtp338
ssg28
g29
sg30
S''
sg31
g328
sg32
g191
sg33
g34
sg37
(dp339
sg39
g331
sg40
g332
sg41
S''
sbsS'member'
p340
(ihappydoclib.parseinfo.functioninfo
FunctionInfo
p341
(dp342
g4
((dp343
(dp344
tp345
sg17
(dp346
sg20
(S'self'
p347
S'k'
S'v'
tp348
sg24
(dp349
g347
(NNNtp350
sS'k'
(NNNtp351
sS'v'
(NNNtp352
ssg28
g29
sg30
S''
sg31
g340
sg32
g191
sg33
g34
sg37
(dp353
sg39
g343
sg40
g344
sg41
S''
sbsS'add'
p354
(ihappydoclib.parseinfo.functioninfo
FunctionInfo
p355
(dp356
g4
((dp357
(dp358
tp359
sg17
(dp360
S'ValueError, "table has been hashed, immutable"'
p361
Nssg20
(S's'
S'k'
S'v'
tp362
sg24
(dp363
S's'
(NNNtp364
sS'k'
(NNNtp365
sS'v'
(NNNtp366
ssg28
g29
sg30
S''
sg31
g354
sg32
g191
sg33
g34
sg37
(dp367
sg39
g357
sg40
g358
sg41
S''
sbsS'reachable'
p368
(ihappydoclib.parseinfo.functioninfo
FunctionInfo
p369
(dp370
g4
((dp371
(dp372
tp373
sg17
(dp374
sg20
(S'self'
p375
S'k'
tp376
sg24
(dp377
g375
(NNNtp378
sS'k'
(NNNtp379
ssg28
g29
sg30
S''
sg31
g368
sg32
g191
sg33
g34
sg37
(dp380
sg39
g371
sg40
g372
sg41
S''
sbsS'__len__'
p381
(ihappydoclib.parseinfo.functioninfo
FunctionInfo
p382
(dp383
g4
((dp384
(dp385
tp386
sg17
(dp387
sg20
(S'self'
p388
tp389
sg24
(dp390
g388
(NNNtp391
ssg28
g29
sg30
S''
sg31
g381
sg32
g191
sg33
g34
sg37
(dp392
sg39
g384
sg40
g385
sg41
S''
sbsS'remap'
p393
(ihappydoclib.parseinfo.functioninfo
FunctionInfo
p394
(dp395
g4
((dp396
(dp397
tp398
sg17
(dp399
sg20
(S'self'
p400
S'X'
tp401
sg24
(dp402
S'X'
(NNNtp403
sg400
(NNNtp404
ssg28
g29
sg30
S''
sg31
g393
sg32
g191
sg33
g34
sg37
(dp405
sg39
g396
sg40
g397
sg41
S''
sbsS'__getitem__'
p406
(ihappydoclib.parseinfo.functioninfo
FunctionInfo
p407
(dp408
g4
((dp409
(dp410
tp411
sg17
(dp412
sg20
(S'self'
p413
S'item'
p414
tp415
sg24
(dp416
g414
(NNNtp417
sg413
(NNNtp418
ssg28
g29
sg30
S''
sg31
g406
sg32
g191
sg33
g34
sg37
(dp419
sg39
g409
sg40
g410
sg41
S''
sbsS'keys'
p420
(ihappydoclib.parseinfo.functioninfo
FunctionInfo
p421
(dp422
g4
((dp423
(dp424
tp425
sg17
(dp426
sg20
(S'self'
p427
tp428
sg24
(dp429
g427
(NNNtp430
ssg28
g29
sg30
S''
sg31
g420
sg32
g191
sg33
g34
sg37
(dp431
sg39
g423
sg40
g424
sg41
S''
sbsS'__setitem__'
p432
(ihappydoclib.parseinfo.functioninfo
FunctionInfo
p433
(dp434
g4
((dp435
(dp436
tp437
sg17
(dp438
S'ValueError, "table has been hashed, it is immutable"'
p439
Nssg20
(S'self'
p440
S'item'
p441
S'value'
p442
tp443
sg24
(dp444
g441
(NNNtp445
sg440
(NNNtp446
sg442
(NNNtp447
ssg28
g29
sg30
S''
sg31
g432
sg32
g191
sg33
g34
sg37
(dp448
sg39
g435
sg40
g436
sg41
S''
sbsS'__add__'
p449
(ihappydoclib.parseinfo.functioninfo
FunctionInfo
p450
(dp451
g4
((dp452
(dp453
tp454
sg17
(dp455
S'ValueError, "kjDict unions only with kjTable"'
p456
Nssg20
(S's'
S'o'
tp457
sg24
(dp458
S's'
(NNNtp459
sS'o'
(NNNtp460
ssg28
g29
sg30
S''
sg31
g449
sg32
g191
sg33
g34
sg37
(dp461
sg39
g452
sg40
g453
sg41
S''
sbsS'__delitem__'
p462
(ihappydoclib.parseinfo.functioninfo
FunctionInfo
p463
(dp464
g4
((dp465
(dp466
tp467
sg17
(dp468
S'ValueError, "table has been hashed, it is immutable"'
p469
Nssg20
(S'self'
p470
S'item'
p471
tp472
sg24
(dp473
g471
(NNNtp474
sg470
(NNNtp475
ssg28
g29
sg30
S''
sg31
g462
sg32
g191
sg33
g34
sg37
(dp476
sg39
g465
sg40
g466
sg41
S''
sbsS'__nonzero__'
p477
(ihappydoclib.parseinfo.functioninfo
FunctionInfo
p478
(dp479
g4
((dp480
(dp481
tp482
sg17
(dp483
sg20
(S'self'
p484
tp485
sg24
(dp486
g484
(NNNtp487
ssg28
g29
sg30
S''
sg31
g477
sg32
g191
sg33
g34
sg37
(dp488
sg39
g480
sg40
g481
sg41
S''
sbsS'_setitems'
p489
(ihappydoclib.parseinfo.functioninfo
FunctionInfo
p490
(dp491
g4
((dp492
(dp493
tp494
sg17
(dp495
S'KeyError, "table hashed, cannot modify"'
p496
Nssg20
(S'self'
p497
S'thing'
p498
tp499
sg24
(dp500
g498
(NNNtp501
sg497
(NNNtp502
ssg28
g29
sg30
S''
sg31
g489
sg32
g191
sg33
g34
sg37
(dp503
sg39
g492
sg40
g493
sg41
S''
sbsS'items'
p504
(ihappydoclib.parseinfo.functioninfo
FunctionInfo
p505
(dp506
g4
((dp507
(dp508
tp509
sg17
(dp510
sg20
(S'self'
p511
tp512
sg24
(dp513
g511
(NNNtp514
ssg28
g29
sg30
S''
sg31
g504
sg32
g191
sg33
g34
sg37
(dp515
sg39
g507
sg40
g508
sg41
S''
sbsS'values'
p516
(ihappydoclib.parseinfo.functioninfo
FunctionInfo
p517
(dp518
g4
((dp519
(dp520
tp521
sg17
(dp522
sg20
(S'self'
p523
tp524
sg24
(dp525
g523
(NNNtp526
ssg28
g29
sg30
S''
sg31
g516
sg32
g191
sg33
g34
sg37
(dp527
sg39
g519
sg40
g520
sg41
S''
sbsS'__mul__'
p528
(ihappydoclib.parseinfo.functioninfo
FunctionInfo
p529
(dp530
g4
((dp531
(dp532
tp533
sg17
(dp534
S'ValueError, "kjDict only composes with kjTable"'
p535
Nssg20
(S's'
S'o'
tp536
sg24
(dp537
S's'
(NNNtp538
sS'o'
(NNNtp539
ssg28
g29
sg30
S''
sg31
g528
sg32
g191
sg33
g34
sg37
(dp540
sg39
g531
sg40
g532
sg41
S''
sbsS'__hash__'
p541
(ihappydoclib.parseinfo.functioninfo
FunctionInfo
p542
(dp543
g4
((dp544
(dp545
tp546
sg17
(dp547
sg20
(S's'
tp548
sg24
(dp549
S's'
(NNNtp550
ssg28
g29
sg30
S''
sg31
g541
sg32
g191
sg33
g34
sg37
(dp551
sg39
g544
sg40
g545
sg41
S''
sbsS'__sub__'
p552
(ihappydoclib.parseinfo.functioninfo
FunctionInfo
p553
(dp554
g4
((dp555
(dp556
tp557
sg17
(dp558
S'ValueError, "kjDict only diffs with kjGraph, kjDict"'
p559
Nssg20
(S's'
S'o'
tp560
sg24
(dp561
S's'
(NNNtp562
sS'o'
(NNNtp563
ssg28
g29
sg30
S''
sg31
g552
sg32
g191
sg33
g34
sg37
(dp564
sg39
g555
sg40
g556
sg41
S''
sbstp565
sg28
g29
sg30
S''
sg180
(lp566
S'__or__'
p567
aS'_member'
p568
asg31
g190
sg32
g2
sg33
g34
sg186
(lp569
S'kjGraph'
p570
asg37
(dp571
sg39
g193
sg40
g194
sg41
S''
sbsS'kjGraph'
p572
(ihappydoclib.parseinfo.classinfo
ClassInfo
p573
(dp574
g4
((dp575
(dp576
S'neighbors'
p577
(ihappydoclib.parseinfo.functioninfo
FunctionInfo
p578
(dp579
g4
((dp580
(dp581
tp582
sg17
(dp583
sg20
(S'self'
p584
S'k'
tp585
sg24
(dp586
g584
(NNNtp587
sS'k'
(NNNtp588
ssg28
g29
sg30
S''
sg31
g577
sg32
g573
sg33
g34
sg37
(dp589
sg39
g580
sg40
g581
sg41
S''
sbsS'subset'
p590
(ihappydoclib.parseinfo.functioninfo
FunctionInfo
p591
(dp592
g4
((dp593
(dp594
tp595
sg17
(dp596
sg20
(S'self'
p597
S'other'
p598
tp599
sg24
(dp600
g597
(NNNtp601
sg598
(NNNtp602
ssg28
g29
sg30
S''
sg31
g590
sg32
g573
sg33
g34
sg37
(dp603
sg39
g593
sg40
g594
sg41
S''
sbsS'__add__'
p604
(ihappydoclib.parseinfo.functioninfo
FunctionInfo
p605
(dp606
g4
((dp607
(dp608
tp609
sg17
(dp610
S'ValueError, "kjGraph adds only with kjTable"'
p611
Nssg20
(S'self'
p612
S'other'
p613
tp614
sg24
(dp615
g612
(NNNtp616
sg613
(NNNtp617
ssg28
g29
sg30
S''
sg31
g604
sg32
g573
sg33
g34
sg37
(dp618
sg39
g607
sg40
g608
sg41
S''
sbsS'dump'
p619
(ihappydoclib.parseinfo.functioninfo
FunctionInfo
p620
(dp621
g4
((dp622
(dp623
tp624
sg17
(dp625
sg20
(S'self'
p626
S'seq'
p627
tp628
sg24
(dp629
g626
(NNNtp630
sg627
(NNNtp631
ssg28
g29
sg30
S''
sg31
g619
sg32
g573
sg33
g34
sg37
(dp632
sg39
g622
sg40
g623
sg41
S''
sbsS'has_key'
p633
(ihappydoclib.parseinfo.functioninfo
FunctionInfo
p634
(dp635
g4
((dp636
(dp637
tp638
sg17
(dp639
sg20
(S'self'
p640
S'k'
tp641
sg24
(dp642
g640
(NNNtp643
sS'k'
(NNNtp644
ssg28
g29
sg30
S''
sg31
g633
sg32
g573
sg33
g34
sg37
(dp645
sg39
g636
sg40
g637
sg41
S''
sbsS'__and__'
p646
(ihappydoclib.parseinfo.functioninfo
FunctionInfo
p647
(dp648
g4
((dp649
(dp650
tp651
sg17
(dp652
S'ValueError, "kjGraph intersects only with kjTable"'
p653
Nssg20
(S'self'
p654
S'other'
p655
tp656
sg24
(dp657
g654
(NNNtp658
sg655
(NNNtp659
ssg28
g29
sg30
S''
sg31
g646
sg32
g573
sg33
g34
sg37
(dp660
sg39
g649
sg40
g650
sg41
S''
sbsS'choose_key'
p661
(ihappydoclib.parseinfo.functioninfo
FunctionInfo
p662
(dp663
g4
((dp664
(dp665
tp666
sg17
(dp667
sg20
(S'self'
p668
tp669
sg24
(dp670
g668
(NNNtp671
ssg28
g29
sg30
S''
sg31
g661
sg32
g573
sg33
g34
sg37
(dp672
sg39
g664
sg40
g665
sg41
S''
sbsS'_pairs'
p673
(ihappydoclib.parseinfo.functioninfo
FunctionInfo
p674
(dp675
g4
((dp676
(dp677
tp678
sg17
(dp679
sg20
(S'self'
p680
S'justtot'
p681
tp682
sg24
(dp683
g681
(I1
S'0'
Ntp684
sg680
(NNNtp685
ssg28
g29
sg30
S''
sg31
g673
sg32
g573
sg33
g34
sg37
(dp686
sg39
g676
sg40
g677
sg41
S''
sbsS'__init__'
p687
(ihappydoclib.parseinfo.functioninfo
FunctionInfo
p688
(dp689
g4
((dp690
(dp691
tp692
sg17
(dp693
S'ValueError, "only 1 or 0 argument supported"'
p694
NsS'ValueError, "arg for kjGraph must be tuple, list, or kjTable"'
p695
Nssg20
(S'self'
p696
S'*args'
p697
tp698
sg24
(dp699
g697
(NNNtp700
sg696
(NNNtp701
ssg28
g29
sg30
S''
sg31
g687
sg32
g573
sg33
g34
sg37
(dp702
sg39
g690
sg40
g691
sg41
S''
sbsS'__invert__'
p703
(ihappydoclib.parseinfo.functioninfo
FunctionInfo
p704
(dp705
g4
((dp706
(dp707
tp708
sg17
(dp709
sg20
(S'self'
p710
tp711
sg24
(dp712
g710
(NNNtp713
ssg28
g29
sg30
S''
sg31
g703
sg32
g573
sg33
g34
sg37
(dp714
sg39
g706
sg40
g707
sg41
S''
sbsS'delete_arc'
p715
(ihappydoclib.parseinfo.functioninfo
FunctionInfo
p716
(dp717
g4
((dp718
(dp719
tp720
sg17
(dp721
S'KeyError, "not in table"'
p722
NsS'ValueError, "table has been hashed, it is  immutable"'
p723
Nssg20
(S'self'
p724
S'k'
S'v'
tp725
sg24
(dp726
g724
(NNNtp727
sS'k'
(NNNtp728
sS'v'
(NNNtp729
ssg28
g29
sg30
S''
sg31
g715
sg32
g573
sg33
g34
sg37
(dp730
sg39
g718
sg40
g719
sg41
S''
sbsS'__cmp__'
p731
(ihappydoclib.parseinfo.functioninfo
FunctionInfo
p732
(dp733
g4
((dp734
(dp735
tp736
sg17
(dp737
sg20
(S'self'
p738
S'other'
p739
tp740
sg24
(dp741
g738
(NNNtp742
sg739
(NNNtp743
ssg28
g29
sg30
S''
sg31
g731
sg32
g573
sg33
g34
sg37
(dp744
sg39
g734
sg40
g735
sg41
S''
sbsS'member'
p745
(ihappydoclib.parseinfo.functioninfo
FunctionInfo
p746
(dp747
g4
((dp748
(dp749
tp750
sg17
(dp751
sg20
(S'self'
p752
S'k'
S'v'
tp753
sg24
(dp754
g752
(NNNtp755
sS'k'
(NNNtp756
sS'v'
(NNNtp757
ssg28
g29
sg30
S''
sg31
g745
sg32
g573
sg33
g34
sg37
(dp758
sg39
g748
sg40
g749
sg41
S''
sbsS'add'
p759
(ihappydoclib.parseinfo.functioninfo
FunctionInfo
p760
(dp761
g4
((dp762
(dp763
tp764
sg17
(dp765
sg20
(S'self'
p766
S'k'
S'v'
tp767
sg24
(dp768
g766
(NNNtp769
sS'k'
(NNNtp770
sS'v'
(NNNtp771
ssg28
g29
sg30
S''
sg31
g759
sg32
g573
sg33
g34
sg37
(dp772
sg39
g762
sg40
g763
sg41
S''
sbsS'reachable'
p773
(ihappydoclib.parseinfo.functioninfo
FunctionInfo
p774
(dp775
g4
((dp776
(dp777
tp778
sg17
(dp779
sg20
(S'self'
p780
S'k'
tp781
sg24
(dp782
g780
(NNNtp783
sS'k'
(NNNtp784
ssg28
g29
sg30
S''
sg31
g773
sg32
g573
sg33
g34
sg37
(dp785
sg39
g776
sg40
g777
sg41
S''
sbsS'__len__'
p786
(ihappydoclib.parseinfo.functioninfo
FunctionInfo
p787
(dp788
g4
((dp789
(dp790
tp791
sg17
(dp792
sg20
(S'self'
p793
tp794
sg24
(dp795
g793
(NNNtp796
ssg28
g29
sg30
S''
sg31
g786
sg32
g573
sg33
g34
sg37
(dp797
sg39
g789
sg40
g790
sg41
S''
sbsS'__mul__'
p798
(ihappydoclib.parseinfo.functioninfo
FunctionInfo
p799
(dp800
g4
((dp801
(dp802
tp803
sg17
(dp804
S'ValueError, "kjGraph composes only with kjTable"'
p805
Nssg20
(S'self'
p806
S'other'
p807
tp808
sg24
(dp809
g806
(NNNtp810
sg807
(NNNtp811
ssg28
g29
sg30
S''
sg31
g798
sg32
g573
sg33
g34
sg37
(dp812
sg39
g801
sg40
g802
sg41
S''
sbsS'remap'
p813
(ihappydoclib.parseinfo.functioninfo
FunctionInfo
p814
(dp815
g4
((dp816
(dp817
tp818
sg17
(dp819
sg20
(S'self'
p820
S'X'
tp821
sg24
(dp822
S'X'
(NNNtp823
sg820
(NNNtp824
ssg28
g29
sg30
S''
sg31
g813
sg32
g573
sg33
g34
sg37
(dp825
sg39
g816
sg40
g817
sg41
S''
sbsS'__getitem__'
p826
(ihappydoclib.parseinfo.functioninfo
FunctionInfo
p827
(dp828
g4
((dp829
(dp830
tp831
sg17
(dp832
sg20
(S'self'
p833
S'item'
p834
tp835
sg24
(dp836
g834
(NNNtp837
sg833
(NNNtp838
ssg28
g29
sg30
S''
sg31
g826
sg32
g573
sg33
g34
sg37
(dp839
sg39
g829
sg40
g830
sg41
S''
sbsS'keys'
p840
(ihappydoclib.parseinfo.functioninfo
FunctionInfo
p841
(dp842
g4
((dp843
(dp844
tp845
sg17
(dp846
sg20
(S'self'
p847
tp848
sg24
(dp849
g847
(NNNtp850
ssg28
g29
sg30
S''
sg31
g840
sg32
g573
sg33
g34
sg37
(dp851
sg39
g843
sg40
g844
sg41
S''
sbsS'__coerce__'
p852
(ihappydoclib.parseinfo.functioninfo
FunctionInfo
p853
(dp854
g4
((dp855
(dp856
tp857
sg17
(dp858
sg20
(S'self'
p859
S'other'
p860
tp861
sg24
(dp862
g859
(NNNtp863
sg860
(NNNtp864
ssg28
g29
sg30
S''
sg31
g852
sg32
g573
sg33
g34
sg37
(dp865
sg39
g855
sg40
g856
sg41
S''
sbsS'__setitem__'
p866
(ihappydoclib.parseinfo.functioninfo
FunctionInfo
p867
(dp868
g4
((dp869
(dp870
tp871
sg17
(dp872
sg20
(S'self'
p873
S'item'
p874
S'value'
p875
tp876
sg24
(dp877
g874
(NNNtp878
sg873
(NNNtp879
sg875
(NNNtp880
ssg28
g29
sg30
S''
sg31
g866
sg32
g573
sg33
g34
sg37
(dp881
sg39
g869
sg40
g870
sg41
S''
sbsS'Clean'
p882
(ihappydoclib.parseinfo.functioninfo
FunctionInfo
p883
(dp884
g4
((dp885
(dp886
tp887
sg17
(dp888
sg20
(S'self'
p889
tp890
sg24
(dp891
g889
(NNNtp892
ssg28
g29
sg30
S''
sg31
g882
sg32
g573
sg33
g34
sg37
(dp893
sg39
g885
sg40
g886
sg41
S''
sbsS'__delitem__'
p894
(ihappydoclib.parseinfo.functioninfo
FunctionInfo
p895
(dp896
g4
((dp897
(dp898
tp899
sg17
(dp900
sg20
(S'self'
p901
S'item'
p902
tp903
sg24
(dp904
g902
(NNNtp905
sg901
(NNNtp906
ssg28
g29
sg30
S''
sg31
g894
sg32
g573
sg33
g34
sg37
(dp907
sg39
g897
sg40
g898
sg41
S''
sbsS'ident'
p908
(ihappydoclib.parseinfo.functioninfo
FunctionInfo
p909
(dp910
g4
((dp911
(dp912
tp913
sg17
(dp914
sg20
(S'self'
p915
tp916
sg24
(dp917
g915
(NNNtp918
ssg28
g29
sg30
S''
sg31
g908
sg32
g573
sg33
g34
sg37
(dp919
sg39
g911
sg40
g912
sg41
g36
sbsS'__nonzero__'
p920
(ihappydoclib.parseinfo.functioninfo
FunctionInfo
p921
(dp922
g4
((dp923
(dp924
tp925
sg17
(dp926
sg20
(S'self'
p927
tp928
sg24
(dp929
g927
(NNNtp930
ssg28
g29
sg30
S''
sg31
g920
sg32
g573
sg33
g34
sg37
(dp931
sg39
g923
sg40
g924
sg41
S''
sbsS'_setitems'
p932
(ihappydoclib.parseinfo.functioninfo
FunctionInfo
p933
(dp934
g4
((dp935
(dp936
tp937
sg17
(dp938
S'ValueError, "cannot setitems with %s" % type( thing )'
p939
NsS'TypeError, "unhashable type"'
p940
NsS'ValueError, "table has been hashed, it is immutable"'
p941
NsS'unhashable'
p942
Nssg20
(S'self'
p943
S'thing'
p944
tp945
sg24
(dp946
g944
(NNNtp947
sg943
(NNNtp948
ssg28
g29
sg30
S''
sg31
g932
sg32
g573
sg33
g34
sg37
(dp949
sg39
g935
sg40
g936
sg41
S''
sbsS'items'
p950
(ihappydoclib.parseinfo.functioninfo
FunctionInfo
p951
(dp952
g4
((dp953
(dp954
tp955
sg17
(dp956
sg20
(S'self'
p957
tp958
sg24
(dp959
g957
(NNNtp960
ssg28
g29
sg30
S''
sg31
g950
sg32
g573
sg33
g34
sg37
(dp961
sg39
g953
sg40
g954
sg41
S''
sbsS'Wash'
p962
(ihappydoclib.parseinfo.functioninfo
FunctionInfo
p963
(dp964
g4
((dp965
(dp966
tp967
sg17
(dp968
sg20
(S'self'
p969
tp970
sg24
(dp971
g969
(NNNtp972
ssg28
g29
sg30
S''
sg31
g962
sg32
g573
sg33
g34
sg37
(dp973
sg39
g965
sg40
g966
sg41
S''
sbsS'values'
p974
(ihappydoclib.parseinfo.functioninfo
FunctionInfo
p975
(dp976
g4
((dp977
(dp978
tp979
sg17
(dp980
sg20
(S'self'
p981
tp982
sg24
(dp983
g981
(NNNtp984
ssg28
g29
sg30
S''
sg31
g974
sg32
g573
sg33
g34
sg37
(dp985
sg39
g977
sg40
g978
sg41
S''
sbsS'__repr__'
p986
(ihappydoclib.parseinfo.functioninfo
FunctionInfo
p987
(dp988
g4
((dp989
(dp990
tp991
sg17
(dp992
sg20
(S'self'
p993
tp994
sg24
(dp995
g993
(NNNtp996
ssg28
g29
sg30
S''
sg31
g986
sg32
g573
sg33
g34
sg37
(dp997
sg39
g989
sg40
g990
sg41
S''
sbsS'Soil'
p998
(ihappydoclib.parseinfo.functioninfo
FunctionInfo
p999
(dp1000
g4
((dp1001
(dp1002
tp1003
sg17
(dp1004
sg20
(S'self'
p1005
tp1006
sg24
(dp1007
g1005
(NNNtp1008
ssg28
g29
sg30
S''
sg31
g998
sg32
g573
sg33
g34
sg37
(dp1009
sg39
g1001
sg40
g1002
sg41
S''
sbsS'__hash__'
p1010
(ihappydoclib.parseinfo.functioninfo
FunctionInfo
p1011
(dp1012
g4
((dp1013
(dp1014
tp1015
sg17
(dp1016
sg20
(S'self'
p1017
tp1018
sg24
(dp1019
g1017
(NNNtp1020
ssg28
g29
sg30
S'in conformance with kjbuckets, permit unhashable keys'
p1021
sg31
g1010
sg32
g573
sg33
g34
sg37
(dp1022
sg39
g1013
sg40
g1014
sg41
S''
sbsS'__sub__'
p1023
(ihappydoclib.parseinfo.functioninfo
FunctionInfo
p1024
(dp1025
g4
((dp1026
(dp1027
tp1028
sg17
(dp1029
S'ValueError, "kjGraph diffs only with kjTable"'
p1030
Nssg20
(S'self'
p1031
S'other'
p1032
tp1033
sg24
(dp1034
g1031
(NNNtp1035
sg1032
(NNNtp1036
ssg28
g29
sg30
S''
sg31
g1023
sg32
g573
sg33
g34
sg37
(dp1037
sg39
g1026
sg40
g1027
sg41
S''
sbsS'tclosure'
p1038
(ihappydoclib.parseinfo.functioninfo
FunctionInfo
p1039
(dp1040
g4
((dp1041
(dp1042
tp1043
sg17
(dp1044
S'self'
p1045
NsS'ValueError, "tclosure only defined on graphs"'
p1046
Nssg20
(S'self'
p1047
tp1048
sg24
(dp1049
g1047
(NNNtp1050
ssg28
g29
sg30
S''
sg31
g1038
sg32
g573
sg33
g34
sg37
(dp1051
sg39
g1041
sg40
g1042
sg41
S''
sbstp1052
sg28
g29
sg30
S''
sg180
(lp1053
S'is_kjtable'
p1054
aS'_member'
p1055
aS'__or__'
p1056
asg31
g572
sg32
g2
sg33
g34
sg186
(lp1057
sg37
(dp1058
sg39
g575
sg40
g576
sg41
S''
sbs(dp1059
S'more_general'
p1060
(ihappydoclib.parseinfo.functioninfo
FunctionInfo
p1061
(dp1062
g4
((dp1063
(dp1064
tp1065
sg17
(dp1066
S't2'
p1067
NsS'ValueError, "cannot coerce, not kjtable"'
p1068
NsS't1'
p1069
Nssg20
(S't1'
p1070
S't2'
p1071
tp1072
sg24
(dp1073
g1071
(NNNtp1074
sg1070
(NNNtp1075
ssg28
g29
sg30
S''
sg31
g1060
sg32
g2
sg33
g34
sg37
(dp1076
sg39
g1063
sg40
g1064
sg41
S''
sbsS'kjUndump'
p1077
(ihappydoclib.parseinfo.functioninfo
FunctionInfo
p1078
(dp1079
g4
((dp1080
(dp1081
tp1082
sg17
(dp1083
sg20
(S't1'
p1084
S't2'
p1085
tp1086
sg24
(dp1087
g1085
(NNNtp1088
sg1084
(NNNtp1089
ssg28
g29
sg30
S''
sg31
g1077
sg32
g2
sg33
g34
sg37
(dp1090
sg39
g1080
sg40
g1081
sg41
S''
sbsS'less_general'
p1091
(ihappydoclib.parseinfo.functioninfo
FunctionInfo
p1092
(dp1093
g4
((dp1094
(dp1095
tp1096
sg17
(dp1097
S't2'
p1098
NsS'ValueError, "cannot coerce, not kjtable"'
p1099
NsS't1'
p1100
Nssg20
(S't1'
p1101
S't2'
p1102
tp1103
sg24
(dp1104
g1102
(NNNtp1105
sg1101
(NNNtp1106
ssg28
g29
sg30
S''
sg31
g1091
sg32
g2
sg33
g34
sg37
(dp1107
sg39
g1094
sg40
g1095
sg41
S''
sbsS'kjtabletest'
p1108
(ihappydoclib.parseinfo.functioninfo
FunctionInfo
p1109
(dp1110
g4
((dp1111
(dp1112
tp1113
sg17
(dp1114
sg20
(S'x'
tp1115
sg24
(dp1116
S'x'
(NNNtp1117
ssg28
g29
sg30
S''
sg31
g1108
sg32
g2
sg33
g34
sg37
(dp1118
sg39
g1111
sg40
g1112
sg41
S''
sbstp1119
sS'_import_info'
p1120
(ihappydoclib.parseinfo.imports
ImportInfo
p1121
(dp1122
S'_named_imports'
p1123
(dp1124
sS'_straight_imports'
p1125
(lp1126
sbsg28
g29
sg30
S'""" kjbuckets in pure python\n\n:Author: Aaron Watters\n:Maintainers: http://gadfly.sf.net/\n:Copyright: Aaron Robert Watters, 1994\n:Id: $Id: kjbuckets0.py,v 1.1 2003/03/19 20:58:53 wc2so1 Exp $:\n"""'
p1127
sg31
S'kjbuckets0'
p1128
sg32
Nsg33
g34
sg37
(dp1129
S'include_comments'
p1130
I1
sS'cacheFilePrefix'
p1131
S'.happydoc.'
p1132
sS'useCache'
p1133
I1
sS'docStringFormat'
p1134
S'StructuredText'
p1135
ssg39
g5
sg40
g1059
sg41
S''
sbt.