(S'f8d3c52ebfbd11b13daa76cd40c7474f'
p1
(ihappydoclib.parseinfo.moduleinfo
ModuleInfo
p2
(dp3
S'_namespaces'
p4
((dp5
(dp6
S'canBeAromatic'
p7
(ihappydoclib.parseinfo.functioninfo
FunctionInfo
p8
(dp9
g4
((dp10
(dp11
tp12
sS'_exception_info'
p13
(dp14
sS'_parameter_names'
p15
(S'cycle'
p16
S'pyroleLike'
p17
tp18
sS'_parameter_info'
p19
(dp20
g17
(NNNtp21
sg16
(NNNtp22
ssS'_filename'
p23
S'../python/frowns/perception/BasicAromaticity.py'
p24
sS'_docstring'
p25
S'(cycle)-> returns AROMATIC if a ring is conjugatable and\n                                  passes the simple tests for aromaticity\n                 returns MAYBE if the ring in its present form\n                                can be aromatic but is not currently\n                         NEVER if the ring can never be aromatic'
p26
sS'_name'
p27
g7
sS'_parent'
p28
g2
sS'_comment_info'
p29
(dp30
sS'_configuration_values'
p31
(dp32
sS'_class_info'
p33
g10
sS'_function_info'
p34
g11
sS'_comments'
p35
S''
sbsS'addHydrogens'
p36
(ihappydoclib.parseinfo.functioninfo
FunctionInfo
p37
(dp38
g4
((dp39
(dp40
tp41
sg13
(dp42
S'FrownsError("Valence error in atom %s" % molecule.atoms.index( atom ) )'
p43
Nssg15
(S'molecule'
p44
S'usedPyroles'
p45
tp46
sg19
(dp47
g45
(I1
S'None'
Ntp48
sg44
(NNNtp49
ssg23
g24
sg25
S'(molecule) -> add implicit hydrogens to a molecule.\n    If the atom has specified valences and the atom must be\n    charged then a Valence Error is raised'
p50
sg27
g36
sg28
g2
sg29
g30
sg31
(dp51
sg33
g39
sg34
g40
sg35
S''
sbsS'convert'
p52
(ihappydoclib.parseinfo.functioninfo
FunctionInfo
p53
(dp54
g4
((dp55
(dp56
tp57
sg13
(dp58
sg15
(S'cycle'
p59
S'pyroleLike'
p60
S'usedPyroles'
p61
tp62
sg19
(dp63
g61
(NNNtp64
sg60
(NNNtp65
sg59
(NNNtp66
ssg23
g24
sg25
S'cycle, pyroleLike, aromatic=0-> aromatize the cycle\n    pyroleLike is a lookup of the pyrole like atoms in the\n    cycle.\n    return 1 if the cycle was aromatized\n           2 if the cycle could not be aromatized'
p67
sg27
g52
sg28
g2
sg29
g30
sg31
(dp68
sg33
g55
sg34
g56
sg35
S''
sbsS'aromatize'
p69
(ihappydoclib.parseinfo.functioninfo
FunctionInfo
p70
(dp71
g4
((dp72
(dp73
tp74
sg13
(dp75
S'"Bad initial aromaticity"'
p76
Nssg15
(S'molecule'
p77
S'usedPyroles'
p78
tp79
sg19
(dp80
g78
(I1
S'None'
Ntp81
sg77
(NNNtp82
ssg23
g24
sg25
S'(molecule, usedPyroles=None)->aromatize a molecular graph\n    usedPyroles is a dictionary that holds the pyrole like\n    atoms that are used in the conversion process.\n    The following valence checker may need this information'
p83
sg27
g69
sg28
g2
sg29
g30
sg31
(dp84
sg33
g72
sg34
g73
sg35
S''
sbsS'getPyroleLikeAtoms'
p85
(ihappydoclib.parseinfo.functioninfo
FunctionInfo
p86
(dp87
g4
((dp88
(dp89
tp90
sg13
(dp91
sg15
(S'cycle'
p92
tp93
sg19
(dp94
g92
(NNNtp95
ssg23
g24
sg25
S'cycle->return a dictionary of pyrole nitrogen-like atoms in\n    a cycle or a molecule  The dictionary is keyed on the atom.handle'
p96
sg27
g85
sg28
g2
sg29
g30
sg31
(dp97
sg33
g88
sg34
g89
sg35
S''
sbsS'fixBonds'
p98
(ihappydoclib.parseinfo.functioninfo
FunctionInfo
p99
(dp100
g4
((dp101
(dp102
tp103
sg13
(dp104
S'"Aromatic Bond outside ring %s" % bond'
p105
Nssg15
(S'molecule'
p106
S'usedPyroles'
p107
tp108
sg19
(dp109
g107
(NNNtp110
sg106
(NNNtp111
ssg23
g24
sg25
S''
sg27
g98
sg28
g2
sg29
g30
sg31
(dp112
sg33
g101
sg34
g102
sg35
S''
sbstp113
sS'_import_info'
p114
(ihappydoclib.parseinfo.imports
ImportInfo
p115
(dp116
S'_named_imports'
p117
(dp118
S'frowns.FrownsError'
p119
(lp120
S'FrownsError'
p121
assS'_straight_imports'
p122
(lp123
sbsg23
g24
sg25
S''
sg27
S'BasicAromaticity'
p124
sg28
Nsg29
g30
sg31
(dp125
S'include_comments'
p126
I1
sS'cacheFilePrefix'
p127
S'.happydoc.'
p128
sS'useCache'
p129
I1
sS'docStringFormat'
p130
S'StructuredText'
p131
ssg33
g5
sg34
g6
sg35
S''
sbt.