(S'25f64224f1dc5a9e0975668fbdf64deb'
p1
(ihappydoclib.parseinfo.moduleinfo
ModuleInfo
p2
(dp3
S'_namespaces'
p4
((dp5
S'RingFinder'
p6
(ihappydoclib.parseinfo.classinfo
ClassInfo
p7
(dp8
g4
((dp9
(dp10
S'len'
p11
(ihappydoclib.parseinfo.functioninfo
FunctionInfo
p12
(dp13
g4
((dp14
(dp15
tp16
sS'_exception_info'
p17
(dp18
sS'_parameter_names'
p19
(S'self'
p20
tp21
sS'_parameter_info'
p22
(dp23
g20
(NNNtp24
ssS'_filename'
p25
S'../python/frowns/perception/rings.py'
p26
sS'_docstring'
p27
S''
sS'_name'
p28
g11
sS'_parent'
p29
g7
sS'_comment_info'
p30
(dp31
sS'_configuration_values'
p32
(dp33
sS'_class_info'
p34
g14
sS'_function_info'
p35
g15
sS'_comments'
p36
S''
sbsS'__init__'
p37
(ihappydoclib.parseinfo.functioninfo
FunctionInfo
p38
(dp39
g4
((dp40
(dp41
tp42
sg17
(dp43
sg19
(S'self'
p44
S'start'
p45
S'rings'
p46
tp47
sg22
(dp48
g45
(NNNtp49
sg44
(NNNtp50
sg46
(NNNtp51
ssg25
g26
sg27
S''
sg28
g37
sg29
g7
sg30
g31
sg32
(dp52
sg34
g40
sg35
g41
sg36
S''
sbsS'next'
p53
(ihappydoclib.parseinfo.functioninfo
FunctionInfo
p54
(dp55
g4
((dp56
(dp57
tp58
sg17
(dp59
sg19
(S'self'
p60
tp61
sg22
(dp62
g60
(NNNtp63
ssg25
g26
sg27
S''
sg28
g53
sg29
g7
sg30
g31
sg32
(dp64
sg34
g56
sg35
g57
sg36
S''
sbstp65
sg25
g26
sg27
S''
sS'_class_member_info'
p66
(lp67
sg28
g6
sg29
g2
sg30
g31
sS'_base_class_info'
p68
(lp69
sg32
(dp70
sg34
g9
sg35
g10
sg36
S''
sbsS'Path'
p71
(ihappydoclib.parseinfo.classinfo
ClassInfo
p72
(dp73
g4
((dp74
(dp75
S'__repr__'
p76
(ihappydoclib.parseinfo.functioninfo
FunctionInfo
p77
(dp78
g4
((dp79
(dp80
tp81
sg17
(dp82
sg19
(S'self'
p83
tp84
sg22
(dp85
g83
(NNNtp86
ssg25
g26
sg27
S''
sg28
g76
sg29
g72
sg30
g31
sg32
(dp87
sg34
g79
sg35
g80
sg36
S''
sbsS'__init__'
p88
(ihappydoclib.parseinfo.functioninfo
FunctionInfo
p89
(dp90
g4
((dp91
(dp92
tp93
sg17
(dp94
sg19
(S'self'
p95
S'atom'
p96
S'rings'
p97
S'last'
p98
S'parent'
p99
tp100
sg22
(dp101
g98
(I1
S'None'
Ntp102
sg95
(NNNtp103
sg97
(NNNtp104
sg99
(I1
S'None'
Ntp105
sg96
(NNNtp106
ssg25
g26
sg27
S''
sg28
g88
sg29
g72
sg30
g31
sg32
(dp107
sg34
g91
sg35
g92
sg36
S''
sbsS'next'
p108
(ihappydoclib.parseinfo.functioninfo
FunctionInfo
p109
(dp110
g4
((dp111
(dp112
tp113
sg17
(dp114
sg19
(S'self'
p115
tp116
sg22
(dp117
g115
(NNNtp118
ssg25
g26
sg27
S"bfs traverse forming new paths don't go the way we came"
p119
sg28
g108
sg29
g72
sg30
g31
sg32
(dp120
sg34
g111
sg35
g112
sg36
S''
sbstp121
sg25
g26
sg27
S'A span is really a path back to a central atom.  Consider it\n    a type of linked list that can compute a linear path from\n    an atom to a root atom.\n\n    span = Path(atom, parent)\n    path = []\n    span.update(path)\n    makes path a linear path from span.atom to the root span\n    '
p122
sg66
(lp123
sg28
g71
sg29
g2
sg30
g31
sg68
(lp124
sg32
(dp125
sg34
g74
sg35
g75
sg36
S''
sbsS'Fusion'
p126
(ihappydoclib.parseinfo.classinfo
ClassInfo
p127
(dp128
g4
((dp129
(dp130
S'updatePath'
p131
(ihappydoclib.parseinfo.functioninfo
FunctionInfo
p132
(dp133
g4
((dp134
(dp135
tp136
sg17
(dp137
sg19
(S'self'
p138
S'newpath'
p139
S'ring'
p140
tp141
sg22
(dp142
g139
(NNNtp143
sg138
(NNNtp144
sg140
(NNNtp145
ssg25
g26
sg27
S''
sg28
g131
sg29
g127
sg30
g31
sg32
(dp146
sg34
g134
sg35
g135
sg36
S''
sbsS'__init__'
p147
(ihappydoclib.parseinfo.functioninfo
FunctionInfo
p148
(dp149
g4
((dp150
(dp151
tp152
sg17
(dp153
sg19
(S'self'
p154
S'path'
p155
S'rings'
p156
tp157
sg22
(dp158
g155
(NNNtp159
sg154
(NNNtp160
sg156
(NNNtp161
ssg25
g26
sg27
S''
sg28
g147
sg29
g127
sg30
g31
sg32
(dp162
sg34
g150
sg35
g151
sg36
S''
sbstp163
sg25
g26
sg27
S''
sg66
(lp164
sg28
g126
sg29
g2
sg30
g31
sg68
(lp165
sg32
(dp166
sg34
g129
sg35
g130
sg36
S''
sbs(dp167
S'test'
p168
(ihappydoclib.parseinfo.functioninfo
FunctionInfo
p169
(dp170
g4
((dp171
(dp172
tp173
sg17
(dp174
sg19
(tsg22
(dp175
sg25
g26
sg27
S''
sg28
g168
sg29
g2
sg30
g31
sg32
(dp176
sg34
g171
sg35
g172
sg36
S''
sbsS'sssr'
p177
(ihappydoclib.parseinfo.functioninfo
FunctionInfo
p178
(dp179
g4
((dp180
(dp181
tp182
sg17
(dp183
sg19
(S'graph'
p184
tp185
sg22
(dp186
g184
(NNNtp187
ssg25
g26
sg27
S''
sg28
g177
sg29
g2
sg30
g31
sg32
(dp188
sg34
g180
sg35
g181
sg36
S''
sbsS'uniqueifyRings'
p189
(ihappydoclib.parseinfo.functioninfo
FunctionInfo
p190
(dp191
g4
((dp192
(dp193
tp194
sg17
(dp195
sg19
(S'sets'
p196
S'numRings'
p197
tp198
sg22
(dp199
g197
(NNNtp200
sg196
(NNNtp201
ssg25
g26
sg27
S''
sg28
g189
sg29
g2
sg30
g31
sg32
(dp202
sg34
g192
sg35
g193
sg36
S''
sbsS'testPath'
p203
(ihappydoclib.parseinfo.functioninfo
FunctionInfo
p204
(dp205
g4
((dp206
(dp207
tp208
sg17
(dp209
sg19
(tsg22
(dp210
sg25
g26
sg27
S''
sg28
g203
sg29
g2
sg30
g31
sg32
(dp211
sg34
g206
sg35
g207
sg36
S''
sbstp212
sS'_import_info'
p213
(ihappydoclib.parseinfo.imports
ImportInfo
p214
(dp215
S'_named_imports'
p216
(dp217
S'frerejaque'
p218
(lp219
S'frerejaqueNumber'
p220
asS'InRings'
p221
(lp222
S'getAtomsBondsInRings'
p223
asS'frowns.Cycle'
p224
(lp225
S'Cycle'
p226
assS'_straight_imports'
p227
(lp228
sbsg25
g26
sg27
S'"""A new ring detection algorithm inspired by talking\nto various people"""'
p229
sg28
S'rings'
p230
sg29
Nsg30
g31
sg32
(dp231
S'include_comments'
p232
I1
sS'cacheFilePrefix'
p233
S'.happydoc.'
p234
sS'useCache'
p235
I1
sS'docStringFormat'
p236
S'StructuredText'
p237
ssg34
g5
sg35
g167
sg36
S''
sbt.