(S'59ed729415ce8ce9f609e514ed21ed94'
p1
(ihappydoclib.parseinfo.moduleinfo
ModuleInfo
p2
(dp3
S'_namespaces'
p4
((dp5
(dp6
S'getHybridAtoms'
p7
(ihappydoclib.parseinfo.functioninfo
FunctionInfo
p8
(dp9
g4
((dp10
(dp11
tp12
sS'_exception_info'
p13
(dp14
sS'_parameter_names'
p15
(S'molecule'
p16
tp17
sS'_parameter_info'
p18
(dp19
g16
(NNNtp20
ssS'_filename'
p21
S'../python/frowns/perception/Hybrid.py'
p22
sS'_docstring'
p23
S'(molecule) -> mark all hybridiced atoms in a molecule\n    that is set the atom.hybrid property to the correct value'
p24
sS'_name'
p25
g7
sS'_parent'
p26
g2
sS'_comment_info'
p27
(dp28
sS'_configuration_values'
p29
(dp30
sS'_class_info'
p31
g10
sS'_function_info'
p32
g11
sS'_comments'
p33
S''
sbstp34
sS'_import_info'
p35
(ihappydoclib.parseinfo.imports
ImportInfo
p36
(dp37
S'_named_imports'
p38
(dp39
sS'_straight_imports'
p40
(lp41
sbsg21
g22
sg23
S''
sg25
S'Hybrid'
p42
sg26
Nsg27
g28
sg29
(dp43
S'include_comments'
p44
I1
sS'cacheFilePrefix'
p45
S'.happydoc.'
p46
sS'useCache'
p47
I1
sS'docStringFormat'
p48
S'StructuredText'
p49
ssg31
g5
sg32
g6
sg33
S''
sbt.