(S'd08c7273c38a2b0b027ea75472052da9'
p1
(ihappydoclib.parseinfo.moduleinfo
ModuleInfo
p2
(dp3
S'_namespaces'
p4
((dp5
S'Component'
p6
(ihappydoclib.parseinfo.classinfo
ClassInfo
p7
(dp8
g4
((dp9
(dp10
S'__init__'
p11
(ihappydoclib.parseinfo.functioninfo
FunctionInfo
p12
(dp13
g4
((dp14
(dp15
tp16
sS'_exception_info'
p17
(dp18
sS'_parameter_names'
p19
(S'self'
p20
S'atoms'
p21
S'bonds'
p22
tp23
sS'_parameter_info'
p24
(dp25
g20
(NNNtp26
sg22
(NNNtp27
sg21
(NNNtp28
ssS'_filename'
p29
S'../python/frowns/perception/frerejaque.py'
p30
sS'_docstring'
p31
S'(atoms, bonds) -> store the atoms and bonds that make\n        a connected component'
p32
sS'_name'
p33
g11
sS'_parent'
p34
g7
sS'_comment_info'
p35
(dp36
(S'Component'
tp37
S'  Compute the frerejaque number for a graph\n'
p38
ssS'_configuration_values'
p39
(dp40
sS'_class_info'
p41
g14
sS'_function_info'
p42
g15
sS'_comments'
p43
S''
sbstp44
sg29
g30
sg31
S''
sS'_class_member_info'
p45
(lp46
sg33
g6
sg34
g2
sg35
g36
sS'_base_class_info'
p47
(lp48
sg39
(dp49
sg41
g9
sg42
g10
sg43
g38
sbs(dp50
S'test'
p51
(ihappydoclib.parseinfo.functioninfo
FunctionInfo
p52
(dp53
g4
((dp54
(dp55
tp56
sg17
(dp57
sg19
(tsg24
(dp58
sg29
g30
sg31
S''
sg33
g51
sg34
g2
sg35
g36
sg39
(dp59
sg41
g54
sg42
g55
sg43
S''
sbsS'getConnectedComponents'
p60
(ihappydoclib.parseinfo.functioninfo
FunctionInfo
p61
(dp62
g4
((dp63
(dp64
tp65
sg17
(dp66
sg19
(S'graph'
p67
tp68
sg24
(dp69
g67
(NNNtp70
ssg29
g30
sg31
S'(graph)->return a list of connected subgraphs of a molecule'
p71
sg33
g60
sg34
g2
sg35
g36
sg39
(dp72
sg41
g63
sg42
g64
sg43
S''
sbsS'frerejaqueNumber'
p73
(ihappydoclib.parseinfo.functioninfo
FunctionInfo
p74
(dp75
g4
((dp76
(dp77
tp78
sg17
(dp79
sg19
(S'graph'
p80
tp81
sg24
(dp82
g80
(NNNtp83
ssg29
g30
sg31
S'(graph)->return the number of rings in a graph'
p84
sg33
g73
sg34
g2
sg35
g36
sg39
(dp85
sg41
g76
sg42
g77
sg43
S''
sbstp86
sS'_import_info'
p87
(ihappydoclib.parseinfo.imports
ImportInfo
p88
(dp89
S'_named_imports'
p90
(dp91
sS'_straight_imports'
p92
(lp93
sbsg29
g30
sg31
S''
sg33
S'frerejaque'
p94
sg34
Nsg35
g36
sg39
(dp95
S'include_comments'
p96
I1
sS'cacheFilePrefix'
p97
S'.happydoc.'
p98
sS'useCache'
p99
I1
sS'docStringFormat'
p100
S'StructuredText'
p101
ssg41
g5
sg42
g50
sg43
S''
sbt.