(S'dda6d2fd166369bbe81d83e324e0f9d5'
p1
(ihappydoclib.parseinfo.moduleinfo
ModuleInfo
p2
(dp3
S'_namespaces'
p4
((dp5
(dp6
tp7
sS'_import_info'
p8
(ihappydoclib.parseinfo.imports
ImportInfo
p9
(dp10
S'_named_imports'
p11
(dp12
sS'_straight_imports'
p13
(lp14
sbsS'_filename'
p15
S'../python/frowns/perception/sssr.py'
p16
sS'_docstring'
p17
S'"""figueras ring detection implementation.\n\nUsage\nmolecule = sssr(molecule)\n\nadds rings and cycles to a molecule.\n"""'
p18
sS'_name'
p19
S'sssr'
p20
sS'_parent'
p21
NsS'_comment_info'
p22
(dp23
sS'_configuration_values'
p24
(dp25
S'include_comments'
p26
I1
sS'cacheFilePrefix'
p27
S'.happydoc.'
p28
sS'useCache'
p29
I1
sS'docStringFormat'
p30
S'StructuredText'
p31
ssS'_class_info'
p32
g5
sS'_function_info'
p33
g6
sS'_comments'
p34
S''
sbt.