(S'342af9f2b649538882830fb6773ba000'
p1
(ihappydoclib.parseinfo.moduleinfo
ModuleInfo
p2
(dp3
S'_namespaces'
p4
((dp5
(dp6
S'toposort'
p7
(ihappydoclib.parseinfo.functioninfo
FunctionInfo
p8
(dp9
g4
((dp10
(dp11
tp12
sS'_exception_info'
p13
(dp14
S'RingException( "Atoms are not in ring" )'
p15
NssS'_parameter_names'
p16
(S'initialAtoms'
p17
S'initialBonds'
p18
tp19
sS'_parameter_info'
p20
(dp21
g17
(NNNtp22
sg18
(NNNtp23
ssS'_filename'
p24
S'../python/frowns/perception/figueras.py'
p25
sS'_docstring'
p26
S'initialAtoms, initialBonds -> atoms, bonds\n    Given the list of atoms and bonds in a ring\n    return the topologically sorted atoms and bonds.\n    That is each atom is connected to the following atom\n    and each bond is connected to the following bond in\n    the following manner\n    a1 - b1 - a2 - b2 - ... '
p27
sS'_name'
p28
g7
sS'_parent'
p29
g2
sS'_comment_info'
p30
(dp31
sS'_configuration_values'
p32
(dp33
sS'_class_info'
p34
g10
sS'_function_info'
p35
g11
sS'_comments'
p36
S''
sbsS'sssr'
p37
(ihappydoclib.parseinfo.functioninfo
FunctionInfo
p38
(dp39
g4
((dp40
(dp41
tp42
sg13
(dp43
S'ShouldntGetHereError'
p44
Nssg16
(S'molecule'
p45
tp46
sg20
(dp47
g45
(NNNtp48
ssg24
g25
sg26
S'molecule -> generate the molecule.cycles that contain\n    the smallest set of smallest rings'
p49
sg28
g37
sg29
g2
sg30
g31
sg32
(dp50
sg34
g40
sg35
g41
sg36
S''
sbsS'checkEdges'
p51
(ihappydoclib.parseinfo.functioninfo
FunctionInfo
p52
(dp53
g4
((dp54
(dp55
tp56
sg13
(dp57
sg16
(S'ringSet'
p58
S'lookup'
p59
S'oatoms'
p60
tp61
sg20
(dp62
g58
(NNNtp63
sg59
(NNNtp64
sg60
(NNNtp65
ssg24
g25
sg26
S'atoms, lookup -> ring\n    atoms must be in the order of traversal around a ring!\n    break an optimal non N2 node and return the largest ring\n    found\n    '
p66
sg28
g51
sg29
g2
sg30
g31
sg32
(dp67
sg34
g54
sg35
g55
sg36
S''
sbsS'getRing'
p68
(ihappydoclib.parseinfo.functioninfo
FunctionInfo
p69
(dp70
g4
((dp71
(dp72
tp73
sg13
(dp74
sg16
(S'startAtom'
p75
S'atomSet'
p76
S'lookup'
p77
S'oatoms'
p78
tp79
sg20
(dp80
g76
(NNNtp81
sg77
(NNNtp82
sg78
(NNNtp83
sg75
(NNNtp84
ssg24
g25
sg26
S'getRing(startAtom, atomSet, lookup, oatoms)->atoms, bonds\n    starting at startAtom do a bfs traversal through the atoms\n    in atomSet and return the smallest ring found\n\n    returns (), () on failure\n    note: atoms and bonds are not returned in traversal order'
p85
sg28
g68
sg29
g2
sg30
g31
sg32
(dp86
sg34
g71
sg35
g72
sg36
S''
sbstp87
sS'_import_info'
p88
(ihappydoclib.parseinfo.imports
ImportInfo
p89
(dp90
S'_named_imports'
p91
(dp92
S'frowns.Cycle'
p93
(lp94
S'Cycle'
p95
assS'_straight_imports'
p96
(lp97
sbsg24
g25
sg26
S'"""Ring Perception Algorithm ala figueras\n\nThis code has been tested against a slower version of ring detection\nsimilar to the ones that the Babel converter uses.\n\nThis code is MUCH faster although their appears to be deficencies\nin this ring detection code that need investigating.\n\nOn the plus side, it generates the ringsets that can be used for\naromaticity detection very quickly (tested on 300k NCI compounds,\nthe canonicalization using aromaticity detection was the same for\nboth ring detectors).\n\nOn the minus side, there may be some bugs in the code that may limit\nits use as a full smallest set of smallest rings finder.\n\nThis is also the ring detection code that CDK uses for their ring\nperception so that might be a branch to investigate.\n"""'
p98
sg28
S'figueras'
p99
sg29
Nsg30
g31
sg32
(dp100
S'include_comments'
p101
I1
sS'cacheFilePrefix'
p102
S'.happydoc.'
p103
sS'useCache'
p104
I1
sS'docStringFormat'
p105
S'StructuredText'
p106
ssg34
g5
sg35
g6
sg36
S''
sbt.