(S'952ab55fbc0f6b5e4e8cc1a629dec9cc'
p1
(ihappydoclib.parseinfo.moduleinfo
ModuleInfo
p2
(dp3
S'_namespaces'
p4
((dp5
(dp6
S'test'
p7
(ihappydoclib.parseinfo.functioninfo
FunctionInfo
p8
(dp9
g4
((dp10
(dp11
tp12
sS'_exception_info'
p13
(dp14
sS'_parameter_names'
p15
(tsS'_parameter_info'
p16
(dp17
sS'_filename'
p18
S'../python/frowns/perception/InRings.py'
p19
sS'_docstring'
p20
S''
sS'_name'
p21
g7
sS'_parent'
p22
g2
sS'_comment_info'
p23
(dp24
(S'_recurseMarkRingAtomsAndBonds'
tp25
S'  Mark all the atoms and bonds that are in rings\n'
p26
ssS'_configuration_values'
p27
(dp28
sS'_class_info'
p29
g10
sS'_function_info'
p30
g11
sS'_comments'
p31
S''
sbsS'_recurseMarkRingAtomsAndBonds'
p32
(ihappydoclib.parseinfo.functioninfo
FunctionInfo
p33
(dp34
g4
((dp35
(dp36
tp37
sg13
(dp38
sg15
(S'atom'
p39
S'atomsVisited'
p40
S'bondsVisited'
p41
S'path'
p42
S'atomsInRings'
p43
S'bondsInRings'
p44
tp45
sg16
(dp46
g44
(NNNtp47
sg41
(NNNtp48
sg40
(NNNtp49
sg43
(NNNtp50
sg39
(NNNtp51
sg42
(NNNtp52
ssg18
g19
sg20
S''
sg21
g32
sg22
g2
sg23
g24
sg27
(dp53
sg29
g35
sg30
g36
sg31
g26
sbsS'getAtomsBondsInRings'
p54
(ihappydoclib.parseinfo.functioninfo
FunctionInfo
p55
(dp56
g4
((dp57
(dp58
tp59
sg13
(dp60
sg15
(S'graph'
p61
tp62
sg16
(dp63
g61
(NNNtp64
ssg18
g19
sg20
S'(graph)->mark all the atoms that can possibly be in a ring\n    system.  These are marked with atom._inring = 1 and bond._inring = 1\n    otherwise atom._inring = 0 and bond._inring  = 0\n    atoms and bonds must have an _inring attribute'
p65
sg21
g54
sg22
g2
sg23
g24
sg27
(dp66
sg29
g57
sg30
g58
sg31
S''
sbstp67
sS'_import_info'
p68
(ihappydoclib.parseinfo.imports
ImportInfo
p69
(dp70
S'_named_imports'
p71
(dp72
sS'_straight_imports'
p73
(lp74
sbsg18
g19
sg20
S'"""Routines to find all atoms and bonds that are\nin rings"""'
p75
sg21
S'InRings'
p76
sg22
Nsg23
g24
sg27
(dp77
S'include_comments'
p78
I1
sS'cacheFilePrefix'
p79
S'.happydoc.'
p80
sS'useCache'
p81
I1
sS'docStringFormat'
p82
S'StructuredText'
p83
ssg29
g5
sg30
g6
sg31
S''
sbt.