(S'f89eddd6b16845120107f58283a71c17'
p1
(ihappydoclib.parseinfo.moduleinfo
ModuleInfo
p2
(dp3
S'_namespaces'
p4
((dp5
(dp6
S'generateFingerprint'
p7
(ihappydoclib.parseinfo.functioninfo
FunctionInfo
p8
(dp9
g4
((dp10
(dp11
tp12
sS'_exception_info'
p13
(dp14
sS'_parameter_names'
p15
(S'molecule'
p16
S'numInts'
p17
S'pathLength'
p18
tp19
sS'_parameter_info'
p20
(dp21
g16
(NNNtp22
sg17
(I1
S'32'
Ntp23
sg18
(I1
S'7'
Ntp24
ssS'_filename'
p25
S'../python/frowns/Fingerprint/__init__.py'
p26
sS'_docstring'
p27
S'(molecule, numInts=32)->Fingerprint\n    given a molecule and the number of integers to use to generate\n    the fingerprint, return the fingerprint of the molecule)'
p28
sS'_name'
p29
g7
sS'_parent'
p30
g2
sS'_comment_info'
p31
(dp32
(S'generateFingerprint'
tp33
S' XXX FIX ME\n make the linear paths a generator eventually\n this should save memory...\n'
p34
ssS'_configuration_values'
p35
(dp36
sS'_class_info'
p37
g10
sS'_function_info'
p38
g11
sS'_comments'
p39
g34
sbsS'generateFingerlist'
p40
(ihappydoclib.parseinfo.functioninfo
FunctionInfo
p41
(dp42
g4
((dp43
(dp44
tp45
sg13
(dp46
sg15
(S'molecule'
p47
S'numInts'
p48
S'pathLength'
p49
tp50
sg20
(dp51
g47
(NNNtp52
sg48
(I1
S'1024'
Ntp53
sg49
(I1
S'7'
Ntp54
ssg25
g26
sg27
S'(molecule, numInts=32)->Fingerprint\n    given a molecule and the number of integers to use to generate\n    the fingerprint, return the fingerprint of the molecule)'
p55
sg29
g40
sg30
g2
sg31
g32
sg35
(dp56
sg37
g43
sg38
g44
sg39
S''
sbstp57
sS'_import_info'
p58
(ihappydoclib.parseinfo.imports
ImportInfo
p59
(dp60
S'_named_imports'
p61
(dp62
sS'_straight_imports'
p63
(lp64
S'Fingerprint'
p65
aS'Fingerlist'
p66
aS'LinearPaths'
p67
asbsg25
g26
sg27
S'"""Codes for creating a daylight like fingerprint\nfor a molecule"""'
p68
sg29
S'__init__'
p69
sg30
Nsg31
g32
sg35
(dp70
S'include_comments'
p71
I1
sS'cacheFilePrefix'
p72
S'.happydoc.'
p73
sS'useCache'
p74
I1
sS'docStringFormat'
p75
S'StructuredText'
p76
ssg37
g5
sg38
g6
sg39
S''
sbt.