(S'b913fe2979f682391085d938f4a376e6'
p1
(ihappydoclib.parseinfo.moduleinfo
ModuleInfo
p2
(dp3
S'_namespaces'
p4
((dp5
(dp6
tp7
sS'_import_info'
p8
(ihappydoclib.parseinfo.imports
ImportInfo
p9
(dp10
S'_named_imports'
p11
(dp12
S'distutils.core'
p13
(lp14
S'setup'
p15
aS'Extension'
p16
asS'distutils.command'
p17
(lp18
S'build_ext'
p19
assS'_straight_imports'
p20
(lp21
S'distutils'
p22
aS'os'
p23
aS'sys'
p24
asbsS'_filename'
p25
S'../python/frowns/extensions/pysssr/setup.py'
p26
sS'_docstring'
p27
S''
sS'_name'
p28
S'setup'
p29
sS'_parent'
p30
NsS'_comment_info'
p31
(dp32
sS'_configuration_values'
p33
(dp34
S'include_comments'
p35
I1
sS'cacheFilePrefix'
p36
S'.happydoc.'
p37
sS'useCache'
p38
I1
sS'docStringFormat'
p39
S'StructuredText'
p40
ssS'_class_info'
p41
g5
sS'_function_info'
p42
g6
sS'_comments'
p43
S''
sbt.