(S'e0725963acc8e88401d6be72ffd5e0a9'
p1
(ihappydoclib.parseinfo.moduleinfo
ModuleInfo
p2
(dp3
S'_namespaces'
p4
((dp5
S'PySSSRError'
p6
(ihappydoclib.parseinfo.classinfo
ClassInfo
p7
(dp8
g4
((dp9
(dp10
tp11
sS'_filename'
p12
S'../python/frowns/extensions/pysssr/sssr.py'
p13
sS'_docstring'
p14
S''
sS'_class_member_info'
p15
(lp16
sS'_name'
p17
g6
sS'_parent'
p18
g2
sS'_comment_info'
p19
(dp20
sS'_base_class_info'
p21
(lp22
S'Exception'
p23
asS'_configuration_values'
p24
(dp25
sS'_class_info'
p26
g9
sS'_function_info'
p27
g10
sS'_comments'
p28
S''
sbs(dp29
S'toposort'
p30
(ihappydoclib.parseinfo.functioninfo
FunctionInfo
p31
(dp32
g4
((dp33
(dp34
tp35
sS'_exception_info'
p36
(dp37
S'PySSSRError( "Toposort Error: bad atoms for ring" )'
p38
NssS'_parameter_names'
p39
(S'initialAtoms'
p40
tp41
sS'_parameter_info'
p42
(dp43
g40
(NNNtp44
ssg12
g13
sg14
S'topologically sort the atoms and return the bonds as well.\n    Assumes that the atoms are the smallest set of rings'
p45
sg17
g30
sg18
g2
sg19
g20
sg24
(dp46
sg26
g33
sg27
g34
sg28
S''
sbsS'sssr'
p47
(ihappydoclib.parseinfo.functioninfo
FunctionInfo
p48
(dp49
g4
((dp50
(dp51
tp52
sg36
(dp53
sg39
(S'molecule'
p54
tp55
sg42
(dp56
g54
(NNNtp57
ssg12
g13
sg14
S''
sg17
g47
sg18
g2
sg19
g20
sg24
(dp58
sg26
g50
sg27
g51
sg28
S''
sbstp59
sS'_import_info'
p60
(ihappydoclib.parseinfo.imports
ImportInfo
p61
(dp62
S'_named_imports'
p63
(dp64
S'frowns.perception'
p65
(lp66
S'figueras'
p67
asS'frowns.Cycle'
p68
(lp69
S'Cycle'
p70
assS'_straight_imports'
p71
(lp72
S'_pysssr'
p73
asbsg12
g13
sg14
S''
sg17
S'sssr'
p74
sg18
Nsg19
g20
sg24
(dp75
S'include_comments'
p76
I1
sS'cacheFilePrefix'
p77
S'.happydoc.'
p78
sS'useCache'
p79
I1
sS'docStringFormat'
p80
S'StructuredText'
p81
ssg26
g5
sg27
g29
sg28
S''
sbt.