(S'8931087362df604a137241d87de9e6af'
p1
(ihappydoclib.parseinfo.moduleinfo
ModuleInfo
p2
(dp3
S'_namespaces'
p4
((dp5
S'SmartsAtom'
p6
(ihappydoclib.parseinfo.classinfo
ClassInfo
p7
(dp8
g4
((dp9
(dp10
S'name_atom'
p11
(ihappydoclib.parseinfo.functioninfo
FunctionInfo
p12
(dp13
g4
((dp14
(dp15
tp16
sS'_exception_info'
p17
(dp18
sS'_parameter_names'
p19
(S'self'
p20
tp21
sS'_parameter_info'
p22
(dp23
g20
(NNNtp24
ssS'_filename'
p25
S'../python/frowns/Canonicalization/SmilesTokens.py'
p26
sS'_docstring'
p27
S''
sS'_name'
p28
g11
sS'_parent'
p29
g7
sS'_comment_info'
p30
(dp31
(S'IsomericAtom'
tp32
S' \n XXX FIX ME -> a lot of shared code here, it would be nicer\n if we can get rid of them\n'
p33
ssS'_configuration_values'
p34
(dp35
sS'_class_info'
p36
g14
sS'_function_info'
p37
g15
sS'_comments'
p38
S''
sbstp39
sg25
g26
sg27
S''
sS'_class_member_info'
p40
(lp41
sg28
g6
sg29
g2
sg30
g31
sS'_base_class_info'
p42
(lp43
S'Atom'
p44
asg34
(dp45
sg36
g9
sg37
g10
sg38
S''
sbsS'Branch'
p46
(ihappydoclib.parseinfo.classinfo
ClassInfo
p47
(dp48
g4
((dp49
(dp50
S'__str__'
p51
(ihappydoclib.parseinfo.functioninfo
FunctionInfo
p52
(dp53
g4
((dp54
(dp55
tp56
sg17
(dp57
sg19
(S'self'
p58
tp59
sg22
(dp60
g58
(NNNtp61
ssg25
g26
sg27
S''
sg28
g51
sg29
g47
sg30
g31
sg34
(dp62
sg36
g54
sg37
g55
sg38
S''
sbstp63
sg25
g26
sg27
S''
sg40
(lp64
sg28
g46
sg29
g2
sg30
g31
sg42
(lp65
sg34
(dp66
sg36
g49
sg37
g50
sg38
S''
sbsS'Atom'
p67
(ihappydoclib.parseinfo.classinfo
ClassInfo
p68
(dp69
g4
((dp70
(dp71
S'__str__'
p72
(ihappydoclib.parseinfo.functioninfo
FunctionInfo
p73
(dp74
g4
((dp75
(dp76
tp77
sg17
(dp78
sg19
(S'self'
p79
tp80
sg22
(dp81
g79
(NNNtp82
ssg25
g26
sg27
S''
sg28
g72
sg29
g68
sg30
g31
sg34
(dp83
sg36
g75
sg37
g76
sg38
S''
sbsS'name_atom'
p84
(ihappydoclib.parseinfo.functioninfo
FunctionInfo
p85
(dp86
g4
((dp87
(dp88
tp89
sg17
(dp90
S'"Negative hcount!!!"'
p91
Nssg19
(S'self'
p92
tp93
sg22
(dp94
g92
(NNNtp95
ssg25
g26
sg27
S''
sg28
g84
sg29
g68
sg30
g31
sg34
(dp96
sg36
g87
sg37
g88
sg38
S''
sbsS'__init__'
p97
(ihappydoclib.parseinfo.functioninfo
FunctionInfo
p98
(dp99
g4
((dp100
(dp101
tp102
sg17
(dp103
sg19
(S'self'
p104
S'atom'
p105
S'closureMappings'
p106
S'idGenerator'
p107
tp108
sg22
(dp109
g106
(NNNtp110
sg104
(NNNtp111
sg107
(NNNtp112
sg105
(NNNtp113
ssg25
g26
sg27
S''
sg28
g97
sg29
g68
sg30
g31
sg34
(dp114
sg36
g100
sg37
g101
sg38
S''
sbstp115
sg25
g26
sg27
S''
sg40
(lp116
sg28
g67
sg29
g2
sg30
g31
sg42
(lp117
sg34
(dp118
sg36
g70
sg37
g71
sg38
S''
sbsS'IsomericAtom'
p119
(ihappydoclib.parseinfo.classinfo
ClassInfo
p120
(dp121
g4
((dp122
(dp123
S'name_atom'
p124
(ihappydoclib.parseinfo.functioninfo
FunctionInfo
p125
(dp126
g4
((dp127
(dp128
tp129
sg17
(dp130
S'"Negative hcount!!!"'
p131
Nssg19
(S'self'
p132
tp133
sg22
(dp134
g132
(NNNtp135
ssg25
g26
sg27
S''
sg28
g124
sg29
g120
sg30
g31
sg34
(dp136
sg36
g127
sg37
g128
sg38
S''
sbstp137
sg25
g26
sg27
S''
sg40
(lp138
sg28
g119
sg29
g2
sg30
g31
sg42
(lp139
S'Atom'
p140
asg34
(dp141
sg36
g122
sg37
g123
sg38
g33
sbsS'SmartsBond'
p142
(ihappydoclib.parseinfo.classinfo
ClassInfo
p143
(dp144
g4
((dp145
(dp146
S'__init__'
p147
(ihappydoclib.parseinfo.functioninfo
FunctionInfo
p148
(dp149
g4
((dp150
(dp151
tp152
sg17
(dp153
sg19
(S'self'
p154
S'bond'
p155
tp156
sg22
(dp157
g154
(NNNtp158
sg155
(NNNtp159
ssg25
g26
sg27
S''
sg28
g147
sg29
g143
sg30
g31
sg34
(dp160
sg36
g150
sg37
g151
sg38
S''
sbstp161
sg25
g26
sg27
S''
sg40
(lp162
sg28
g142
sg29
g2
sg30
g31
sg42
(lp163
S'Bond'
p164
asg34
(dp165
sg36
g145
sg37
g146
sg38
S''
sbsS'BranchEnd'
p166
(ihappydoclib.parseinfo.classinfo
ClassInfo
p167
(dp168
g4
((dp169
(dp170
S'__str__'
p171
(ihappydoclib.parseinfo.functioninfo
FunctionInfo
p172
(dp173
g4
((dp174
(dp175
tp176
sg17
(dp177
sg19
(S'self'
p178
tp179
sg22
(dp180
g178
(NNNtp181
ssg25
g26
sg27
S''
sg28
g171
sg29
g167
sg30
g31
sg34
(dp182
sg36
g174
sg37
g175
sg38
S''
sbstp183
sg25
g26
sg27
S''
sg40
(lp184
sg28
g166
sg29
g2
sg30
g31
sg42
(lp185
sg34
(dp186
sg36
g169
sg37
g170
sg38
S''
sbsS'Bond'
p187
(ihappydoclib.parseinfo.classinfo
ClassInfo
p188
(dp189
g4
((dp190
(dp191
S'__str__'
p192
(ihappydoclib.parseinfo.functioninfo
FunctionInfo
p193
(dp194
g4
((dp195
(dp196
tp197
sg17
(dp198
sg19
(S'self'
p199
tp200
sg22
(dp201
g199
(NNNtp202
ssg25
g26
sg27
S''
sg28
g192
sg29
g188
sg30
g31
sg34
(dp203
sg36
g195
sg37
g196
sg38
S''
sbsS'__init__'
p204
(ihappydoclib.parseinfo.functioninfo
FunctionInfo
p205
(dp206
g4
((dp207
(dp208
tp209
sg17
(dp210
sg19
(S'self'
p211
S'bond'
p212
tp213
sg22
(dp214
g211
(NNNtp215
sg212
(NNNtp216
ssg25
g26
sg27
S''
sg28
g204
sg29
g188
sg30
g31
sg34
(dp217
sg36
g207
sg37
g208
sg38
S''
sbstp218
sg25
g26
sg27
S''
sg40
(lp219
sg28
g187
sg29
g2
sg30
g31
sg42
(lp220
sg34
(dp221
sg36
g190
sg37
g191
sg38
S''
sbs(dp222
tp223
sS'_import_info'
p224
(ihappydoclib.parseinfo.imports
ImportInfo
p225
(dp226
S'_named_imports'
p227
(dp228
sS'_straight_imports'
p229
(lp230
sbsg25
g26
sg27
S'"""SmilesTokens\n\nThis is a list of smiles tokens that define the smiles language.\nThere are for types of tokens\n\n Atoms - C or [1000C]\n Bonds - single, double, sacrifice fly\n closures - things like C1CCC1 (the ones are closures)\n branches (Branch Start, Branch End)\n          - these are ( and ) respectively\n\n Each Token Class below can convert the appropriate object into\n a string through overloading the __str__ mechanism.\n"""'
p231
sg28
S'SmilesTokens'
p232
sg29
Nsg30
g31
sg34
(dp233
S'include_comments'
p234
I1
sS'cacheFilePrefix'
p235
S'.happydoc.'
p236
sS'useCache'
p237
I1
sS'docStringFormat'
p238
S'StructuredText'
p239
ssg36
g5
sg37
g222
sg38
S''
sbt.