(S'92eaba0e347d00bb41382db358d93d8d'
p1
(ihappydoclib.parseinfo.moduleinfo
ModuleInfo
p2
(dp3
S'_namespaces'
p4
((dp5
S'SmartsTraversal'
p6
(ihappydoclib.parseinfo.classinfo
ClassInfo
p7
(dp8
g4
((dp9
(dp10
tp11
sS'_filename'
p12
S'../python/frowns/Canonicalization/SmilesTraversal.py'
p13
sS'_docstring'
p14
S''
sS'_class_member_info'
p15
(lp16
S'AtomToken'
p17
aS'BondToken'
p18
asS'_name'
p19
g6
sS'_parent'
p20
g2
sS'_comment_info'
p21
(dp22
sS'_base_class_info'
p23
(lp24
S'SmilesTraversal'
p25
asS'_configuration_values'
p26
(dp27
sS'_class_info'
p28
g9
sS'_function_info'
p29
g10
sS'_comments'
p30
S''
sbsS'SmilesTraversal'
p31
(ihappydoclib.parseinfo.classinfo
ClassInfo
p32
(dp33
g4
((dp34
(dp35
S'addBranchEnd'
p36
(ihappydoclib.parseinfo.functioninfo
FunctionInfo
p37
(dp38
g4
((dp39
(dp40
tp41
sS'_exception_info'
p42
(dp43
sS'_parameter_names'
p44
(S'self'
p45
tp46
sS'_parameter_info'
p47
(dp48
g45
(NNNtp49
ssg12
g13
sg14
S''
sg19
g36
sg20
g32
sg21
g22
sg26
(dp50
sg28
g39
sg29
g40
sg30
S''
sbsS'__str__'
p51
(ihappydoclib.parseinfo.functioninfo
FunctionInfo
p52
(dp53
g4
((dp54
(dp55
tp56
sg42
(dp57
sg44
(S'self'
p58
tp59
sg47
(dp60
g58
(NNNtp61
ssg12
g13
sg14
S''
sg19
g51
sg20
g32
sg21
g22
sg26
(dp62
sg28
g54
sg29
g55
sg30
S''
sbsS'addBond'
p63
(ihappydoclib.parseinfo.functioninfo
FunctionInfo
p64
(dp65
g4
((dp66
(dp67
tp68
sg42
(dp69
sg44
(S'self'
p70
S'bond'
p71
tp72
sg47
(dp73
g70
(NNNtp74
sg71
(NNNtp75
ssg12
g13
sg14
S''
sg19
g63
sg20
g32
sg21
g22
sg26
(dp76
sg28
g66
sg29
g67
sg30
S''
sbsS'addClosure'
p77
(ihappydoclib.parseinfo.functioninfo
FunctionInfo
p78
(dp79
g4
((dp80
(dp81
tp82
sg42
(dp83
sg44
(S'self'
p84
S'atom1'
p85
S'atom2'
p86
S'bond'
p87
tp88
sg47
(dp89
g84
(NNNtp90
sg85
(NNNtp91
sg86
(NNNtp92
sg87
(NNNtp93
ssg12
g13
sg14
S''
sg19
g77
sg20
g32
sg21
g22
sg26
(dp94
sg28
g80
sg29
g81
sg30
S''
sbsS'addBranch'
p95
(ihappydoclib.parseinfo.functioninfo
FunctionInfo
p96
(dp97
g4
((dp98
(dp99
tp100
sg42
(dp101
sg44
(S'self'
p102
tp103
sg47
(dp104
g102
(NNNtp105
ssg12
g13
sg14
S''
sg19
g95
sg20
g32
sg21
g22
sg26
(dp106
sg28
g98
sg29
g99
sg30
S''
sbsS'addAtom'
p107
(ihappydoclib.parseinfo.functioninfo
FunctionInfo
p108
(dp109
g4
((dp110
(dp111
tp112
sg42
(dp113
sg44
(S'self'
p114
S'atom'
p115
tp116
sg47
(dp117
g114
(NNNtp118
sg115
(NNNtp119
ssg12
g13
sg14
S''
sg19
g107
sg20
g32
sg21
g22
sg26
(dp120
sg28
g110
sg29
g111
sg30
S''
sbsS'append'
p121
(ihappydoclib.parseinfo.functioninfo
FunctionInfo
p122
(dp123
g4
((dp124
(dp125
tp126
sg42
(dp127
sg44
(S'self'
p128
S'traverse'
p129
tp130
sg47
(dp131
g128
(NNNtp132
sg129
(NNNtp133
ssg12
g13
sg14
S'(traverse)->append the traverse to the current traverse'
p134
sg19
g121
sg20
g32
sg21
g22
sg26
(dp135
sg28
g124
sg29
g125
sg30
S''
sbsS'__init__'
p136
(ihappydoclib.parseinfo.functioninfo
FunctionInfo
p137
(dp138
g4
((dp139
(dp140
tp141
sg42
(dp142
sg44
(S'self'
p143
S'parent'
p144
tp145
sg47
(dp146
g143
(NNNtp147
sg144
(I1
S'None'
Ntp148
ssg12
g13
sg14
S''
sg19
g136
sg20
g32
sg21
g22
sg26
(dp149
sg28
g139
sg29
g140
sg30
S''
sbstp150
sg12
g13
sg14
S''
sg15
(lp151
S'AtomToken'
p152
aS'BondToken'
p153
aS'BranchToken'
p154
aS'BranchEndToken'
p155
asg19
g31
sg20
g2
sg21
g22
sg23
(lp156
sg26
(dp157
sg28
g34
sg29
g35
sg30
S''
sbsS'IDGenerator'
p158
(ihappydoclib.parseinfo.classinfo
ClassInfo
p159
(dp160
g4
((dp161
(dp162
S'__init__'
p163
(ihappydoclib.parseinfo.functioninfo
FunctionInfo
p164
(dp165
g4
((dp166
(dp167
tp168
sg42
(dp169
sg44
(S'self'
p170
tp171
sg47
(dp172
g170
(NNNtp173
ssg12
g13
sg14
S''
sg19
g163
sg20
g159
sg21
g22
sg26
(dp174
sg28
g166
sg29
g167
sg30
S''
sbsS'next'
p175
(ihappydoclib.parseinfo.functioninfo
FunctionInfo
p176
(dp177
g4
((dp178
(dp179
tp180
sg42
(dp181
sg44
(S'self'
p182
tp183
sg47
(dp184
g182
(NNNtp185
ssg12
g13
sg14
S''
sg19
g175
sg20
g159
sg21
g22
sg26
(dp186
sg28
g178
sg29
g179
sg30
S''
sbstp187
sg12
g13
sg14
S''
sg15
(lp188
sg19
g158
sg20
g2
sg21
g22
sg23
(lp189
sg26
(dp190
sg28
g161
sg29
g162
sg30
S''
sbsS'IsomericSmilesTraversal'
p191
(ihappydoclib.parseinfo.classinfo
ClassInfo
p192
(dp193
g4
((dp194
(dp195
tp196
sg12
g13
sg14
S''
sg15
(lp197
S'AtomToken'
p198
asg19
g191
sg20
g2
sg21
g22
sg23
(lp199
S'SmilesTraversal'
p200
asg26
(dp201
sg28
g194
sg29
g195
sg30
S''
sbs(dp202
tp203
sS'_import_info'
p204
(ihappydoclib.parseinfo.imports
ImportInfo
p205
(dp206
S'_named_imports'
p207
(dp208
sS'_straight_imports'
p209
(lp210
S'SmilesTokens'
p211
asbsg12
g13
sg14
S'"""Traversals - a traversal (or path) through a graph\n\nTraversals are stored as a list of tokens representing each object in a graph.\nEach token object has __str__ defined so once a list has been formed\nit can be turned into a string object by\n\n "".join(traversal_list)\n\nTokens are defined by the representation desired.  See SmilesTokens.py for\na list of SmilesTokens.\n\nOne thing to remember is that closures are considered atom properties for\nthe purposes of traversals.  That is the AtomToken is reponsible for storing\ninformation about closures.  This information is built up during the\ndepth first search of the graph.\n"""'
p212
sg19
S'SmilesTraversal'
p213
sg20
Nsg21
g22
sg26
(dp214
S'include_comments'
p215
I1
sS'cacheFilePrefix'
p216
S'.happydoc.'
p217
sS'useCache'
p218
I1
sS'docStringFormat'
p219
S'StructuredText'
p220
ssg28
g5
sg29
g202
sg30
S''
sbt.