(S'8370a34670401988d7c3ea3314742d2b'
p1
(ihappydoclib.parseinfo.moduleinfo
ModuleInfo
p2
(dp3
S'_namespaces'
p4
((dp5
S'Primes'
p6
(ihappydoclib.parseinfo.classinfo
ClassInfo
p7
(dp8
g4
((dp9
(dp10
S'_findNextPrime'
p11
(ihappydoclib.parseinfo.functioninfo
FunctionInfo
p12
(dp13
g4
((dp14
(dp15
tp16
sS'_exception_info'
p17
(dp18
sS'_parameter_names'
p19
(S'self'
p20
S'N'
tp21
sS'_parameter_info'
p22
(dp23
g20
(NNNtp24
sS'N'
(NNNtp25
ssS'_filename'
p26
S'../python/frowns/Canonicalization/Primes.py'
p27
sS'_docstring'
p28
S'Generate the first N primes'
p29
sS'_name'
p30
g11
sS'_parent'
p31
g7
sS'_comment_info'
p32
(dp33
(S'Primes'
p34
tp35
S' Primes is a class that computes the list of primes\n  303 primes are pre computed and added as necessary.\n  Usually, our graphs are much smaller than this so\n  the seive of Erasthosthenes is actually not used.\n'
p36
s(g34
S'_findNextPrime'
tp37
S' good old Sieve of Erasthosthenes\n'
p38
ssS'_configuration_values'
p39
(dp40
sS'_class_info'
p41
g14
sS'_function_info'
p42
g15
sS'_comments'
p43
g38
sbsS'__getitem__'
p44
(ihappydoclib.parseinfo.functioninfo
FunctionInfo
p45
(dp46
g4
((dp47
(dp48
tp49
sg17
(dp50
sg19
(S'self'
p51
S'i'
tp52
sg22
(dp53
S'i'
(NNNtp54
sg51
(NNNtp55
ssg26
g27
sg28
S''
sg30
g44
sg31
g7
sg32
g33
sg39
(dp56
sg41
g47
sg42
g48
sg43
S''
sbsS'get'
p57
(ihappydoclib.parseinfo.functioninfo
FunctionInfo
p58
(dp59
g4
((dp60
(dp61
tp62
sg17
(dp63
sg19
(S'self'
p64
S'i'
tp65
sg22
(dp66
S'i'
(NNNtp67
sg64
(NNNtp68
ssg26
g27
sg28
S''
sg30
g57
sg31
g7
sg32
g33
sg39
(dp69
sg41
g60
sg42
g61
sg43
S''
sbstp70
sg26
g27
sg28
S''
sS'_class_member_info'
p71
(lp72
S'primes'
p73
asg30
g6
sg31
g2
sg32
g33
sS'_base_class_info'
p74
(lp75
sg39
(dp76
sg41
g9
sg42
g10
sg43
g36
sbs(dp77
tp78
sS'_import_info'
p79
(ihappydoclib.parseinfo.imports
ImportInfo
p80
(dp81
S'_named_imports'
p82
(dp83
sS'_straight_imports'
p84
(lp85
sbsg26
g27
sg28
S'"""Generate the n\'th prime\n      import Primes\n      prime = Primes.prime\n      nthprime = primes[n]\n      prime.get(n)  retrieve the nth prime\n\n"""'
p86
sg30
S'Primes'
p87
sg31
Nsg32
g33
sg39
(dp88
S'include_comments'
p89
I1
sS'cacheFilePrefix'
p90
S'.happydoc.'
p91
sS'useCache'
p92
I1
sS'docStringFormat'
p93
S'StructuredText'
p94
ssg41
g5
sg42
g77
sg43
S''
sbt.