(S'39eb505b8004a851fec3586c15d3caa6'
p1
(ihappydoclib.parseinfo.moduleinfo
ModuleInfo
p2
(dp3
S'_namespaces'
p4
((dp5
S'MolReaderError'
p6
(ihappydoclib.parseinfo.classinfo
ClassInfo
p7
(dp8
g4
((dp9
(dp10
tp11
sS'_filename'
p12
S'../python/frowns/mdl_parsers/sditerator.py'
p13
sS'_docstring'
p14
S''
sS'_class_member_info'
p15
(lp16
sS'_name'
p17
g6
sS'_parent'
p18
g2
sS'_comment_info'
p19
(dp20
sS'_base_class_info'
p21
(lp22
S'Exception'
p23
asS'_configuration_values'
p24
(dp25
sS'_class_info'
p26
g9
sS'_function_info'
p27
g10
sS'_comments'
p28
S''
sbsS'collector'
p29
(ihappydoclib.parseinfo.classinfo
ClassInfo
p30
(dp31
g4
((dp32
(dp33
S'dump'
p34
(ihappydoclib.parseinfo.functioninfo
FunctionInfo
p35
(dp36
g4
((dp37
(dp38
tp39
sS'_exception_info'
p40
(dp41
sS'_parameter_names'
p42
(S'self'
p43
tp44
sS'_parameter_info'
p45
(dp46
g43
(NNNtp47
ssg12
g13
sg14
S''
sg17
g34
sg18
g30
sg19
g20
sg24
(dp48
sg26
g37
sg27
g38
sg28
S''
sbsS'__init__'
p49
(ihappydoclib.parseinfo.functioninfo
FunctionInfo
p50
(dp51
g4
((dp52
(dp53
tp54
sg40
(dp55
sg42
(S'self'
p56
S'file'
p57
tp58
sg45
(dp59
g56
(NNNtp60
sg57
(NNNtp61
ssg12
g13
sg14
S''
sg17
g49
sg18
g30
sg19
g20
sg24
(dp62
sg26
g52
sg27
g53
sg28
S''
sbsS'next'
p63
(ihappydoclib.parseinfo.functioninfo
FunctionInfo
p64
(dp65
g4
((dp66
(dp67
tp68
sg40
(dp69
sg42
(S'self'
p70
tp71
sg45
(dp72
g70
(NNNtp73
ssg12
g13
sg14
S''
sg17
g63
sg18
g30
sg19
g20
sg24
(dp74
sg26
g66
sg27
g67
sg28
S''
sbstp75
sg12
g13
sg14
S''
sg15
(lp76
sg17
g29
sg18
g2
sg19
g20
sg21
(lp77
sg24
(dp78
sg26
g32
sg27
g33
sg28
S''
sbs(dp79
S'parse_atom'
p80
(ihappydoclib.parseinfo.functioninfo
FunctionInfo
p81
(dp82
g4
((dp83
(dp84
tp85
sg40
(dp86
sg42
(S'line'
p87
tp88
sg45
(dp89
g87
(NNNtp90
ssg12
g13
sg14
S''
sg17
g80
sg18
g2
sg19
g20
sg24
(dp91
sg26
g83
sg27
g84
sg28
S''
sbsS'reader'
p92
(ihappydoclib.parseinfo.functioninfo
FunctionInfo
p93
(dp94
g4
((dp95
(dp96
tp97
sg40
(dp98
S'MolReaderError("An SD record cannot have a bondtype of %s and a stereo value of %s" %( bondtype, stereo ) )'
p99
Nssg42
(S'file'
p100
S'stripHydrogens'
p101
tp102
sg45
(dp103
g100
(NNNtp104
sg101
(I1
S'1'
Ntp105
ssg12
g13
sg14
S''
sg17
g92
sg18
g2
sg19
g20
sg24
(dp106
sg26
g95
sg27
g96
sg28
S''
sbsS'parse_bond'
p107
(ihappydoclib.parseinfo.functioninfo
FunctionInfo
p108
(dp109
g4
((dp110
(dp111
tp112
sg40
(dp113
sg42
(S'line'
p114
tp115
sg45
(dp116
g114
(NNNtp117
ssg12
g13
sg14
S''
sg17
g107
sg18
g2
sg19
g20
sg24
(dp118
sg26
g110
sg27
g111
sg28
S''
sbstp119
sS'_import_info'
p120
(ihappydoclib.parseinfo.imports
ImportInfo
p121
(dp122
S'_named_imports'
p123
(dp124
S'frowns.Atom'
p125
(lp126
S'Atom'
p127
asS'frowns.Molecule'
p128
(lp129
S'Molecule'
p130
asS'__future__'
p131
(lp132
S'generators'
p133
asS'frowns.Bond'
p134
(lp135
S'Bond'
p136
assS'_straight_imports'
p137
(lp138
S're'
p139
aS'os'
p140
aS'sys'
p141
aS'traceback'
p142
asbsg12
g13
sg14
S'"""file reader for\nreading sdf (MDL) files\n"""'
p143
sg17
S'sditerator'
p144
sg18
Nsg19
g20
sg24
(dp145
S'include_comments'
p146
I1
sS'cacheFilePrefix'
p147
S'.happydoc.'
p148
sS'useCache'
p149
I1
sS'docStringFormat'
p150
S'StructuredText'
p151
ssg26
g5
sg27
g79
sg28
S''
sbt.