(S'd37f26282871894bb7f2b0d84e513bc3'
p1
(ihappydoclib.parseinfo.moduleinfo
ModuleInfo
p2
(dp3
S'_namespaces'
p4
((dp5
S'SDFloat'
p6
(ihappydoclib.parseinfo.classinfo
ClassInfo
p7
(dp8
g4
((dp9
(dp10
S'__str__'
p11
(ihappydoclib.parseinfo.functioninfo
FunctionInfo
p12
(dp13
g4
((dp14
(dp15
tp16
sS'_exception_info'
p17
(dp18
sS'_parameter_names'
p19
(S'self'
p20
tp21
sS'_parameter_info'
p22
(dp23
g20
(NNNtp24
ssS'_filename'
p25
S'../python/frowns/mdl_parsers/sdwriter.py'
p26
sS'_docstring'
p27
S''
sS'_name'
p28
g11
sS'_parent'
p29
g7
sS'_comment_info'
p30
(dp31
sS'_configuration_values'
p32
(dp33
sS'_class_info'
p34
g14
sS'_function_info'
p35
g15
sS'_comments'
p36
S''
sbsS'__init__'
p37
(ihappydoclib.parseinfo.functioninfo
FunctionInfo
p38
(dp39
g4
((dp40
(dp41
tp42
sg17
(dp43
sg19
(S'self'
p44
S'f'
tp45
sg22
(dp46
g44
(NNNtp47
sS'f'
(NNNtp48
ssg25
g26
sg27
S''
sg28
g37
sg29
g7
sg30
g31
sg32
(dp49
sg34
g40
sg35
g41
sg36
S''
sbstp50
sg25
g26
sg27
S'Class to print out a float in the format the sd file\n    expects'
p51
sS'_class_member_info'
p52
(lp53
sg28
g6
sg29
g2
sg30
g31
sS'_base_class_info'
p54
(lp55
sg32
(dp56
sg34
g9
sg35
g10
sg36
S''
sbs(dp57
S'writeMolecule'
p58
(ihappydoclib.parseinfo.functioninfo
FunctionInfo
p59
(dp60
g4
((dp61
(dp62
tp63
sg17
(dp64
sg19
(S'm'
S'atoms'
p65
S'bonds'
p66
S'fields'
p67
S'index'
p68
tp69
sg22
(dp70
g67
(I1
S'1'
Ntp71
sg66
(I1
S'None'
Ntp72
sS'm'
(NNNtp73
sg68
(I1
S'1'
Ntp74
sg65
(I1
S'None'
Ntp75
ssg25
g26
sg27
S''
sg28
g58
sg29
g2
sg30
g31
sg32
(dp76
sg34
g61
sg35
g62
sg36
S''
sbsS'writeAtom'
p77
(ihappydoclib.parseinfo.functioninfo
FunctionInfo
p78
(dp79
g4
((dp80
(dp81
tp82
sg17
(dp83
sg19
(S'atom'
p84
tp85
sg22
(dp86
g84
(NNNtp87
ssg25
g26
sg27
S'atom->return the string that represents the atom in an sdfile'
p88
sg28
g77
sg29
g2
sg30
g31
sg32
(dp89
sg34
g80
sg35
g81
sg36
S''
sbsS'writeBond'
p90
(ihappydoclib.parseinfo.functioninfo
FunctionInfo
p91
(dp92
g4
((dp93
(dp94
tp95
sg17
(dp96
sg19
(S'bond'
p97
S'a1'
p98
S'a2'
p99
tp100
sg22
(dp101
g98
(NNNtp102
sg99
(NNNtp103
sg97
(NNNtp104
ssg25
g26
sg27
S''
sg28
g90
sg29
g2
sg30
g31
sg32
(dp105
sg34
g93
sg35
g94
sg36
S''
sbstp106
sS'_import_info'
p107
(ihappydoclib.parseinfo.imports
ImportInfo
p108
(dp109
S'_named_imports'
p110
(dp111
sS'_straight_imports'
p112
(lp113
S'os'
p114
asbsg25
g26
sg27
S'"""Experimental SDFILE Writer\n\nNo support for fields like\nM  CHG\nM  STY\nand the like\n"""'
p115
sg28
S'sdwriter'
p116
sg29
Nsg30
g31
sg32
(dp117
S'include_comments'
p118
I1
sS'cacheFilePrefix'
p119
S'.happydoc.'
p120
sS'useCache'
p121
I1
sS'docStringFormat'
p122
S'StructuredText'
p123
ssg34
g5
sg35
g57
sg36
S''
sbt.