(S'e14b929052f0bb595066a27698370886'
p1
(ihappydoclib.parseinfo.moduleinfo
ModuleInfo
p2
(dp3
S'_namespaces'
p4
((dp5
S'AtomType'
p6
(ihappydoclib.parseinfo.classinfo
ClassInfo
p7
(dp8
g4
((dp9
(dp10
S'__str__'
p11
(ihappydoclib.parseinfo.functioninfo
FunctionInfo
p12
(dp13
g4
((dp14
(dp15
tp16
sS'_exception_info'
p17
(dp18
sS'_parameter_names'
p19
(S'self'
p20
tp21
sS'_parameter_info'
p22
(dp23
g20
(NNNtp24
ssS'_filename'
p25
S'../python/frowns/Objects/FrownTypes.py'
p26
sS'_docstring'
p27
S''
sS'_name'
p28
g11
sS'_parent'
p29
g7
sS'_comment_info'
p30
(dp31
(S'AtomType'
tp32
S" XXX FIX ME\n Let's make dictionaries instead.  That will\n  be cleaner\n"
p33
ssS'_configuration_values'
p34
(dp35
sS'_class_info'
p36
g14
sS'_function_info'
p37
g15
sS'_comments'
p38
S''
sbsS'__init__'
p39
(ihappydoclib.parseinfo.functioninfo
FunctionInfo
p40
(dp41
g4
((dp42
(dp43
tp44
sg17
(dp45
sg19
(S'self'
p46
S'symbol'
p47
S'**args'
p48
tp49
sg22
(dp50
g46
(NNNtp51
sg47
(NNNtp52
sg48
(NNNtp53
ssg25
g26
sg27
S''
sg28
g39
sg29
g7
sg30
g31
sg34
(dp54
sg36
g42
sg37
g43
sg38
S''
sbstp55
sg25
g26
sg27
S'AtomType\n    This class essentiall reads a bunch of named arguments in the form\n    a=2, b=3, c=[]\n    and makes a class O with attributes O.a=2, O.b=3 O.c=[]\n    Python is cool.'
p56
sS'_class_member_info'
p57
(lp58
sg28
g6
sg29
g2
sg30
g31
sS'_base_class_info'
p59
(lp60
sg34
(dp61
sg36
g9
sg37
g10
sg38
g33
sbs(dp62
tp63
sS'_import_info'
p64
(ihappydoclib.parseinfo.imports
ImportInfo
p65
(dp66
S'_named_imports'
p67
(dp68
sS'_straight_imports'
p69
(lp70
sbsg25
g26
sg27
S'"""Default element properties:\n\nThe information in an element is:\n  number == atomic number\n  symbol == the short symbol (eg, He for helium)\n  name == the full (American) English name\n  mass == the atomic mass, in amu, natural propensities\n  negativity == Pauling negativity value\n  valences == list of possible valence occupancies\n\nThis was pretty much lifted from element.py\nThanks Andrew!\n"""'
p71
sg28
S'FrownTypes'
p72
sg29
Nsg30
g31
sg34
(dp73
S'include_comments'
p74
I1
sS'cacheFilePrefix'
p75
S'.happydoc.'
p76
sS'useCache'
p77
I1
sS'docStringFormat'
p78
S'StructuredText'
p79
ssg36
g5
sg37
g62
sg38
S''
sbt.