(S'83ebd078892e7b9341138f20fc2263e4'
p1
(ihappydoclib.parseinfo.moduleinfo
ModuleInfo
p2
(dp3
S'_namespaces'
p4
((dp5
S'Drawer'
p6
(ihappydoclib.parseinfo.classinfo
ClassInfo
p7
(dp8
g4
((dp9
(dp10
S'_drawPoly'
p11
(ihappydoclib.parseinfo.functioninfo
FunctionInfo
p12
(dp13
g4
((dp14
(dp15
tp16
sS'_exception_info'
p17
(dp18
sS'_parameter_names'
p19
(S'self'
p20
S'coords'
p21
S'color'
p22
tp23
sS'_parameter_info'
p24
(dp25
g22
(I1
S'"black"'
Ntp26
sg20
(NNNtp27
sg21
(NNNtp28
ssS'_filename'
p29
S'../python/frowns/Depict/wxMakeGif.py'
p30
sS'_docstring'
p31
S''
sS'_name'
p32
g11
sS'_parent'
p33
g7
sS'_comment_info'
p34
(dp35
sS'_configuration_values'
p36
(dp37
sS'_class_info'
p38
g14
sS'_function_info'
p39
g15
sS'_comments'
p40
S''
sbsS'_clear'
p41
(ihappydoclib.parseinfo.functioninfo
FunctionInfo
p42
(dp43
g4
((dp44
(dp45
tp46
sg17
(dp47
sg19
(S'self'
p48
tp49
sg24
(dp50
g48
(NNNtp51
ssg29
g30
sg31
S''
sg32
g41
sg33
g7
sg34
g35
sg36
(dp52
sg38
g44
sg39
g45
sg40
S''
sbsS'makeGif'
p53
(ihappydoclib.parseinfo.functioninfo
FunctionInfo
p54
(dp55
g4
((dp56
S'Rect'
p57
(ihappydoclib.parseinfo.classinfo
ClassInfo
p58
(dp59
g4
((dp60
(dp61
S'__init__'
p62
(ihappydoclib.parseinfo.functioninfo
FunctionInfo
p63
(dp64
g4
((dp65
(dp66
tp67
sg17
(dp68
sg19
(S'self'
p69
S'**kw'
p70
tp71
sg24
(dp72
g69
(NNNtp73
sg70
(NNNtp74
ssg29
g30
sg31
S''
sg32
g62
sg33
g58
sg34
g35
sg36
(dp75
sg38
g65
sg39
g66
sg40
S''
sbstp76
sg29
g30
sg31
S''
sS'_class_member_info'
p77
(lp78
sg32
g57
sg33
g54
sg34
g35
sS'_base_class_info'
p79
(lp80
sg36
(dp81
sg38
g60
sg39
g61
sg40
S''
sbs(dp82
tp83
sg17
(dp84
sg19
(S'self'
p85
S'mol'
p86
S'width'
p87
S'height'
p88
S'type'
p89
tp90
sg24
(dp91
g87
(I1
S'256'
Ntp92
sg85
(NNNtp93
sg88
(I1
S'256'
Ntp94
sg89
(I1
S'wxBITMAP_TYPE_BMP'
Ntp95
sg86
(NNNtp96
ssg29
g30
sg31
S''
sg32
g53
sg33
g7
sg34
g35
sg36
(dp97
sg38
g56
sg39
g82
sg40
S''
sbsS'_draw'
p98
(ihappydoclib.parseinfo.functioninfo
FunctionInfo
p99
(dp100
g4
((dp101
(dp102
tp103
sg17
(dp104
sg19
(S'self'
p105
S'mol'
p106
S'dc'
p107
S'rect'
p108
tp109
sg24
(dp110
g105
(NNNtp111
sg107
(NNNtp112
sg108
(NNNtp113
sg106
(NNNtp114
ssg29
g30
sg31
S'actual drawing code for the widget.  This is seperated into a private\n        function to allow for drawing on any supplied DC like a postscript or\n        printer DC'
p115
sg32
g98
sg33
g7
sg34
g35
sg36
(dp116
sg38
g101
sg39
g102
sg40
S''
sbsS'_drawLine'
p117
(ihappydoclib.parseinfo.functioninfo
FunctionInfo
p118
(dp119
g4
((dp120
(dp121
tp122
sg17
(dp123
sg19
(S'self'
p124
S'x1'
p125
S'y1'
p126
S'x2'
p127
S'y2'
p128
S'color'
p129
tp130
sg24
(dp131
g128
(NNNtp132
sg129
(NNNtp133
sg124
(NNNtp134
sg127
(NNNtp135
sg126
(NNNtp136
sg125
(NNNtp137
ssg29
g30
sg31
S''
sg32
g117
sg33
g7
sg34
g35
sg36
(dp138
sg38
g120
sg39
g121
sg40
S''
sbsS'_drawOval'
p139
(ihappydoclib.parseinfo.functioninfo
FunctionInfo
p140
(dp141
g4
((dp142
(dp143
tp144
sg17
(dp145
sg19
(S'self'
p146
S'x'
S'y'
S'xh'
p147
S'yh'
p148
tp149
sg24
(dp150
S'y'
(NNNtp151
sS'x'
(NNNtp152
sg146
(NNNtp153
sg147
(NNNtp154
sg148
(NNNtp155
ssg29
g30
sg31
S''
sg32
g139
sg33
g7
sg34
g35
sg36
(dp156
sg38
g142
sg39
g143
sg40
S''
sbsS'_drawText'
p157
(ihappydoclib.parseinfo.functioninfo
FunctionInfo
p158
(dp159
g4
((dp160
(dp161
tp162
sg17
(dp163
sg19
(S'self'
p164
S'text'
p165
S'font'
p166
S'fontsize'
p167
S'x'
S'y'
S'color'
p168
S'bg'
p169
tp170
sg24
(dp171
g169
(I1
S'"white"'
Ntp172
sg168
(NNNtp173
sg165
(NNNtp174
sg164
(NNNtp175
sg167
(NNNtp176
sS'y'
(NNNtp177
sS'x'
(NNNtp178
sg166
(NNNtp179
ssg29
g30
sg31
S''
sg32
g157
sg33
g7
sg34
g35
sg36
(dp180
sg38
g160
sg39
g161
sg40
S''
sbsS'__init__'
p181
(ihappydoclib.parseinfo.functioninfo
FunctionInfo
p182
(dp183
g4
((dp184
(dp185
tp186
sg17
(dp187
sg19
(S'self'
p188
S'x0'
p189
S'y0'
p190
S'width'
p191
S'height'
p192
tp193
sg24
(dp194
g190
(I1
S'0'
Ntp195
sg188
(NNNtp196
sg192
(I1
S'256'
Ntp197
sg189
(I1
S'0'
Ntp198
sg191
(I1
S'256'
Ntp199
ssg29
g30
sg31
S''
sg32
g181
sg33
g7
sg34
g35
sg36
(dp200
sg38
g184
sg39
g185
sg40
S''
sbstp201
sg29
g30
sg31
S''
sg77
(lp202
sg32
g6
sg33
g2
sg34
g35
sg79
(lp203
S'DrawMolHarness'
p204
asg36
(dp205
sg38
g9
sg39
g10
sg40
S''
sbs(dp206
tp207
sS'_import_info'
p208
(ihappydoclib.parseinfo.imports
ImportInfo
p209
(dp210
S'_named_imports'
p211
(dp212
S'frowns.Depict.MoleculeDrawer'
p213
(lp214
S'DrawMolHarness'
p215
asS'wxPython.wx'
p216
(lp217
S'*'
assS'_straight_imports'
p218
(lp219
S'os'
p220
aS'tempfile'
p221
asbsg29
g30
sg31
S'"""Draw a picture form a molecule"""'
p222
sg32
S'wxMakeGif'
p223
sg33
Nsg34
g35
sg36
(dp224
S'include_comments'
p225
I1
sS'cacheFilePrefix'
p226
S'.happydoc.'
p227
sS'useCache'
p228
I1
sS'docStringFormat'
p229
S'StructuredText'
p230
ssg38
g5
sg39
g206
sg40
S''
sbt.