(S'1218ab6d6f824b3b129e022249634030'
p1
(ihappydoclib.parseinfo.moduleinfo
ModuleInfo
p2
(dp3
S'_namespaces'
p4
((dp5
S'wxMoleculeRendererHelper'
p6
(ihappydoclib.parseinfo.classinfo
ClassInfo
p7
(dp8
g4
((dp9
(dp10
S'drawLine'
p11
(ihappydoclib.parseinfo.functioninfo
FunctionInfo
p12
(dp13
g4
((dp14
(dp15
tp16
sS'_exception_info'
p17
(dp18
sS'_parameter_names'
p19
(S'self'
p20
S'x1'
p21
S'y1'
p22
S'x2'
p23
S'y2'
p24
tp25
sS'_parameter_info'
p26
(dp27
g22
(NNNtp28
sg23
(NNNtp29
sg20
(NNNtp30
sg21
(NNNtp31
sg24
(NNNtp32
ssS'_filename'
p33
S'../python/frowns/Depict/wxMoleculeDrawerNew.py'
p34
sS'_docstring'
p35
S''
sS'_name'
p36
g11
sS'_parent'
p37
g7
sS'_comment_info'
p38
(dp39
sS'_configuration_values'
p40
(dp41
sS'_class_info'
p42
g14
sS'_function_info'
p43
g15
sS'_comments'
p44
S''
sbsS'clear'
p45
(ihappydoclib.parseinfo.functioninfo
FunctionInfo
p46
(dp47
g4
((dp48
(dp49
tp50
sg17
(dp51
sg19
(S'self'
p52
tp53
sg26
(dp54
g52
(NNNtp55
ssg33
g34
sg35
S''
sg36
g45
sg37
g7
sg38
g39
sg40
(dp56
sg42
g48
sg43
g49
sg44
S''
sbsS'drawText'
p57
(ihappydoclib.parseinfo.functioninfo
FunctionInfo
p58
(dp59
g4
((dp60
(dp61
tp62
sg17
(dp63
sg19
(S'self'
p64
S'text'
p65
S'font'
p66
S'fontsize'
p67
S'x'
S'y'
S'color'
p68
S'bg'
p69
tp70
sg26
(dp71
g69
(I1
S'"white"'
Ntp72
sg68
(NNNtp73
sg65
(NNNtp74
sg64
(NNNtp75
sg67
(NNNtp76
sS'y'
(NNNtp77
sS'x'
(NNNtp78
sg66
(NNNtp79
ssg33
g34
sg35
S''
sg36
g57
sg37
g7
sg38
g39
sg40
(dp80
sg42
g60
sg43
g61
sg44
S''
sbsS'SetXY'
p81
(ihappydoclib.parseinfo.functioninfo
FunctionInfo
p82
(dp83
g4
((dp84
(dp85
tp86
sg17
(dp87
sg19
(S'self'
p88
S'x'
S'y'
tp89
sg26
(dp90
S'y'
(NNNtp91
sS'x'
(NNNtp92
sg88
(NNNtp93
ssg33
g34
sg35
S''
sg36
g81
sg37
g7
sg38
g39
sg40
(dp94
sg42
g84
sg43
g85
sg44
S''
sbsS'drawOval'
p95
(ihappydoclib.parseinfo.functioninfo
FunctionInfo
p96
(dp97
g4
((dp98
(dp99
tp100
sg17
(dp101
sg19
(S'self'
p102
S'x'
S'y'
S'xh'
p103
S'yh'
p104
tp105
sg26
(dp106
S'y'
(NNNtp107
sS'x'
(NNNtp108
sg102
(NNNtp109
sg103
(NNNtp110
sg104
(NNNtp111
ssg33
g34
sg35
S''
sg36
g95
sg37
g7
sg38
g39
sg40
(dp112
sg42
g98
sg43
g99
sg44
S''
sbstp113
sg33
g34
sg35
S''
sS'_class_member_info'
p114
(lp115
sg36
g6
sg37
g2
sg38
g39
sS'_base_class_info'
p116
(lp117
sg40
(dp118
sg42
g9
sg43
g10
sg44
S''
sbsS'wxMoleculeDrawer'
p119
(ihappydoclib.parseinfo.classinfo
ClassInfo
p120
(dp121
g4
((dp122
(dp123
S'OnPaint'
p124
(ihappydoclib.parseinfo.functioninfo
FunctionInfo
p125
(dp126
g4
((dp127
(dp128
tp129
sg17
(dp130
sg19
(S'self'
p131
S'event'
p132
tp133
sg26
(dp134
g131
(NNNtp135
sg132
(NNNtp136
ssg33
g34
sg35
S''
sg36
g124
sg37
g120
sg38
g39
sg40
(dp137
sg42
g127
sg43
g128
sg44
S''
sbsS'OnSize'
p138
(ihappydoclib.parseinfo.functioninfo
FunctionInfo
p139
(dp140
g4
((dp141
(dp142
tp143
sg17
(dp144
sg19
(S'self'
p145
S'event'
p146
tp147
sg26
(dp148
g145
(NNNtp149
sg146
(NNNtp150
ssg33
g34
sg35
S''
sg36
g138
sg37
g120
sg38
g39
sg40
(dp151
sg42
g141
sg43
g142
sg44
S''
sbsS'__init__'
p152
(ihappydoclib.parseinfo.functioninfo
FunctionInfo
p153
(dp154
g4
((dp155
(dp156
tp157
sg17
(dp158
sg19
(S'self'
p159
S'parent'
p160
S'drawAromatic'
p161
tp162
sg26
(dp163
g159
(NNNtp164
sg161
(I1
S'1'
Ntp165
sg160
(NNNtp166
ssg33
g34
sg35
S''
sg36
g152
sg37
g120
sg38
g39
sg40
(dp167
sg42
g155
sg43
g156
sg44
S''
sbsS'setMolecule'
p168
(ihappydoclib.parseinfo.functioninfo
FunctionInfo
p169
(dp170
g4
((dp171
(dp172
tp173
sg17
(dp174
sg19
(S'self'
p175
S'mol'
p176
tp177
sg26
(dp178
g175
(NNNtp179
sg176
(NNNtp180
ssg33
g34
sg35
S''
sg36
g168
sg37
g120
sg38
g39
sg40
(dp181
sg42
g171
sg43
g172
sg44
S''
sbstp182
sg33
g34
sg35
S''
sg114
(lp183
sg36
g119
sg37
g2
sg38
g39
sg116
(lp184
S'wxScrolledWindow'
p185
aS'wxMoleculeRendererHelper'
p186
asg40
(dp187
sg42
g122
sg43
g123
sg44
S''
sbsS'testApp'
p188
(ihappydoclib.parseinfo.classinfo
ClassInfo
p189
(dp190
g4
((dp191
(dp192
S'OnInit'
p193
(ihappydoclib.parseinfo.functioninfo
FunctionInfo
p194
(dp195
g4
((dp196
(dp197
tp198
sg17
(dp199
sg19
(S'self'
p200
tp201
sg26
(dp202
g200
(NNNtp203
ssg33
g34
sg35
S''
sg36
g193
sg37
g189
sg38
g39
sg40
(dp204
sg42
g196
sg43
g197
sg44
S''
sbstp205
sg33
g34
sg35
S''
sg114
(lp206
sg36
g188
sg37
g2
sg38
g39
sg116
(lp207
S'wxApp'
p208
asg40
(dp209
sg42
g191
sg43
g192
sg44
S''
sbs(dp210
tp211
sS'_import_info'
p212
(ihappydoclib.parseinfo.imports
ImportInfo
p213
(dp214
S'_named_imports'
p215
(dp216
S'wxPython.wx'
p217
(lp218
S'*'
assS'_straight_imports'
p219
(lp220
S'MoleculeDrawerNew'
p221
asbsg33
g34
sg35
S''
sg36
S'wxMoleculeDrawerNew'
p222
sg37
Nsg38
g39
sg40
(dp223
S'include_comments'
p224
I1
sS'cacheFilePrefix'
p225
S'.happydoc.'
p226
sS'useCache'
p227
I1
sS'docStringFormat'
p228
S'StructuredText'
p229
ssg42
g5
sg43
g210
sg44
S''
sbt.