(S'8c62cd659f7c32efedf131743af8bf84'
p1
(ihappydoclib.parseinfo.moduleinfo
ModuleInfo
p2
(dp3
S'_namespaces'
p4
((dp5
(dp6
S'lineIntersection'
p7
(ihappydoclib.parseinfo.functioninfo
FunctionInfo
p8
(dp9
g4
((dp10
(dp11
tp12
sS'_exception_info'
p13
(dp14
sS'_parameter_names'
p15
(S'A1'
p16
S'A2'
p17
S'B1'
p18
S'B2'
p19
tp20
sS'_parameter_info'
p21
(dp22
g16
(NNNtp23
sg17
(NNNtp24
sg18
(NNNtp25
sg19
(NNNtp26
ssS'_filename'
p27
S'../python/frowns/Depict/LineIntersection.py'
p28
sS'_docstring'
p29
S''
sS'_name'
p30
g7
sS'_parent'
p31
g2
sS'_comment_info'
p32
(dp33
sS'_configuration_values'
p34
(dp35
sS'_class_info'
p36
g10
sS'_function_info'
p37
g11
sS'_comments'
p38
S''
sbstp39
sS'_import_info'
p40
(ihappydoclib.parseinfo.imports
ImportInfo
p41
(dp42
S'_named_imports'
p43
(dp44
sS'_straight_imports'
p45
(lp46
sbsg27
g28
sg29
S''
sg30
S'LineIntersection'
p47
sg31
Nsg32
g33
sg34
(dp48
S'include_comments'
p49
I1
sS'cacheFilePrefix'
p50
S'.happydoc.'
p51
sS'useCache'
p52
I1
sS'docStringFormat'
p53
S'StructuredText'
p54
ssg36
g5
sg37
g6
sg38
S''
sbt.