(S'03ff5d1d032e58d2e469670b7b48208b'
p1
(ihappydoclib.parseinfo.moduleinfo
ModuleInfo
p2
(dp3
S'_namespaces'
p4
((dp5
(dp6
S'generateDrawables'
p7
(ihappydoclib.parseinfo.functioninfo
FunctionInfo
p8
(dp9
g4
((dp10
(dp11
tp12
sS'_exception_info'
p13
(dp14
sS'_parameter_names'
p15
(S'atoms'
p16
S'bonds'
p17
S'drawAromatic'
p18
S'name_atom'
p19
tp20
sS'_parameter_info'
p21
(dp22
g17
(NNNtp23
sg18
(I1
S'1'
Ntp24
sg19
(I1
S'name_atom'
Ntp25
sg16
(NNNtp26
ssS'_filename'
p27
S'../python/frowns/Depict/Drawables.py'
p28
sS'_docstring'
p29
S"(atoms, bonds, drawAromatic=1)->generate drawables from a collection of\n    atoms and bonds.  The reason we aren't using a full molecule\n    is that we would like to draw a portion of a molecule\n    if necessary"
p30
sS'_name'
p31
g7
sS'_parent'
p32
g2
sS'_comment_info'
p33
(dp34
sS'_configuration_values'
p35
(dp36
sS'_class_info'
p37
g10
sS'_function_info'
p38
g11
sS'_comments'
p39
S''
sbsS'_recurse'
p40
(ihappydoclib.parseinfo.functioninfo
FunctionInfo
p41
(dp42
g4
((dp43
(dp44
tp45
sg13
(dp46
sg15
(S'atom'
p47
S'visited'
p48
tp49
sg21
(dp50
g48
(NNNtp51
sg47
(NNNtp52
ssg27
g28
sg29
S'_recursion routine for detecting overlapping\n    fragments'
p53
sg31
g40
sg32
g2
sg33
g34
sg35
(dp54
sg37
g43
sg38
g44
sg39
S''
sbsS'name_atom'
p55
(ihappydoclib.parseinfo.functioninfo
FunctionInfo
p56
(dp57
g4
((dp58
(dp59
tp60
sg13
(dp61
S'"Negative hcount!!!"'
p62
Nssg15
(S'atom'
p63
tp64
sg21
(dp65
g63
(NNNtp66
ssg27
g28
sg29
S'->symbol\n    Return the atom symbol for a depiction.  Carbons atoms\n    in general are not returned'
p67
sg31
g55
sg32
g2
sg33
g34
sg35
(dp68
sg37
g58
sg38
g59
sg39
S''
sbsS'getOverlappingFragments'
p69
(ihappydoclib.parseinfo.functioninfo
FunctionInfo
p70
(dp71
g4
((dp72
(dp73
tp74
sg13
(dp75
sg15
(S'atoms'
p76
tp77
sg21
(dp78
g76
(NNNtp79
ssg27
g28
sg29
S'given a list of atoms, return the overlapping\n    components in a dictionary\n    key = tuple of coordinates\n    value = number of overlaps\n    '
p80
sg31
g69
sg32
g2
sg33
g34
sg35
(dp81
sg37
g72
sg38
g73
sg39
S''
sbstp82
sS'_import_info'
p83
(ihappydoclib.parseinfo.imports
ImportInfo
p84
(dp85
S'_named_imports'
p86
(dp87
S'LineGenerator'
p88
(lp89
S'make_double_line'
p90
asS'frowns.Canonicalization.SmilesTokens'
p91
(lp92
S'Atom'
p93
assS'_straight_imports'
p94
(lp95
S'math'
p96
asbsg27
g28
sg29
S'"""Generate the drawables for a molecule\n\ngenerateDrawables(atoms, bonds) -> (points, lines, boundingbox)\n\npoints are in the form ((x,y,symbol)...)\nlines are in the form ((bondType, (x1,y1), (x2,y2))...\nbounding box is in the form (minx, maxx, miny, maxy)\n\n"""'
p97
sg31
S'Drawables'
p98
sg32
Nsg33
g34
sg35
(dp99
S'include_comments'
p100
I1
sS'cacheFilePrefix'
p101
S'.happydoc.'
p102
sS'useCache'
p103
I1
sS'docStringFormat'
p104
S'StructuredText'
p105
ssg37
g5
sg38
g6
sg39
S''
sbt.