(S'bf92f83514c67619c6b612c22bf355e3'
p1
(ihappydoclib.parseinfo.moduleinfo
ModuleInfo
p2
(dp3
S'_namespaces'
p4
((dp5
S'MoleculeDock'
p6
(ihappydoclib.parseinfo.classinfo
ClassInfo
p7
(dp8
g4
((dp9
(dp10
S'addMolecule'
p11
(ihappydoclib.parseinfo.functioninfo
FunctionInfo
p12
(dp13
g4
((dp14
(dp15
tp16
sS'_exception_info'
p17
(dp18
sS'_parameter_names'
p19
(S'self'
p20
S'mol'
p21
S'name'
p22
tp23
sS'_parameter_info'
p24
(dp25
g20
(NNNtp26
sg22
(I1
S'None'
Ntp27
sg21
(NNNtp28
ssS'_filename'
p29
S'../python/frowns/Depict/MoleculeDock.py'
p30
sS'_docstring'
p31
S''
sS'_name'
p32
g11
sS'_parent'
p33
g7
sS'_comment_info'
p34
(dp35
sS'_configuration_values'
p36
(dp37
sS'_class_info'
p38
g14
sS'_function_info'
p39
g15
sS'_comments'
p40
S''
sbsS'__init__'
p41
(ihappydoclib.parseinfo.functioninfo
FunctionInfo
p42
(dp43
g4
((dp44
(dp45
tp46
sg17
(dp47
sg19
(S'self'
p48
S'master'
p49
S'cnf'
p50
S'**kw'
p51
tp52
sg24
(dp53
g50
(I1
S'{}'
Ntp54
sg48
(NNNtp55
sg49
(I1
S'None'
Ntp56
sg51
(NNNtp57
ssg29
g30
sg31
S'Construct a new Molecule dock with the parent master.\n\n        Valid resource names: background, bd, bg, borderwidth, class,\n        colormap, container, cursor, height, highlightbackground,\n        highlightcolor, highlightthickness, relief, takefocus, visual, width.'
p58
sg32
g41
sg33
g7
sg34
g35
sg36
(dp59
sg38
g44
sg39
g45
sg40
S''
sbstp60
sg29
g30
sg31
S''
sS'_class_member_info'
p61
(lp62
sg32
g6
sg33
g2
sg34
g35
sS'_base_class_info'
p63
(lp64
S'ScrollingFrame'
p65
asg36
(dp66
sg38
g9
sg39
g10
sg40
S''
sbs(dp67
tp68
sS'_import_info'
p69
(ihappydoclib.parseinfo.imports
ImportInfo
p70
(dp71
S'_named_imports'
p72
(dp73
S'ScrollingFrame'
p74
(lp75
S'ScrollingFrame'
p76
asS'Tkinter'
p77
(lp78
S'*'
aS'_cnfmerge'
p79
asS'frowns.Depict.TkMoleculeDrawer'
p80
(lp81
S'MoleculeDrawer'
p82
assS'_straight_imports'
p83
(lp84
sbsg29
g30
sg31
S''
sg32
S'MoleculeDock'
p85
sg33
Nsg34
g35
sg36
(dp86
S'include_comments'
p87
I1
sS'cacheFilePrefix'
p88
S'.happydoc.'
p89
sS'useCache'
p90
I1
sS'docStringFormat'
p91
S'StructuredText'
p92
ssg38
g5
sg39
g67
sg40
S''
sbt.