(S'c6bcd79bb2788bcb3a6b93e661fb6f33'
p1
(ihappydoclib.parseinfo.moduleinfo
ModuleInfo
p2
(dp3
S'_namespaces'
p4
((dp5
S'TkMoleculeDrawer'
p6
(ihappydoclib.parseinfo.classinfo
ClassInfo
p7
(dp8
g4
((dp9
(dp10
S'drawOval'
p11
(ihappydoclib.parseinfo.functioninfo
FunctionInfo
p12
(dp13
g4
((dp14
(dp15
tp16
sS'_exception_info'
p17
(dp18
sS'_parameter_names'
p19
(S'self'
p20
S'x'
S'y'
S'xh'
p21
S'yh'
p22
tp23
sS'_parameter_info'
p24
(dp25
S'y'
(NNNtp26
sS'x'
(NNNtp27
sg20
(NNNtp28
sg21
(NNNtp29
sg22
(NNNtp30
ssS'_filename'
p31
S'../python/frowns/Depict/MoleculeDrawerNew.py'
p32
sS'_docstring'
p33
S''
sS'_name'
p34
g11
sS'_parent'
p35
g7
sS'_comment_info'
p36
(dp37
(S'_recurse'
tp38
S' \n Routines to split the components of a molecule\n'
p39
ssS'_configuration_values'
p40
(dp41
sS'_class_info'
p42
g14
sS'_function_info'
p43
g15
sS'_comments'
p44
S''
sbsS'_resize'
p45
(ihappydoclib.parseinfo.functioninfo
FunctionInfo
p46
(dp47
g4
((dp48
(dp49
tp50
sg17
(dp51
sg19
(S'self'
p52
S'event'
p53
tp54
sg24
(dp55
g52
(NNNtp56
sg53
(I1
S'None'
Ntp57
ssg31
g32
sg33
S'(event) -> resive the drawing to event.height, event.width'
p58
sg34
g45
sg35
g7
sg36
g37
sg40
(dp59
sg42
g48
sg43
g49
sg44
S''
sbsS'drawLine'
p60
(ihappydoclib.parseinfo.functioninfo
FunctionInfo
p61
(dp62
g4
((dp63
(dp64
tp65
sg17
(dp66
sg19
(S'self'
p67
S'x1'
p68
S'y1'
p69
S'x2'
p70
S'y2'
p71
tp72
sg24
(dp73
g69
(NNNtp74
sg70
(NNNtp75
sg67
(NNNtp76
sg68
(NNNtp77
sg71
(NNNtp78
ssg31
g32
sg33
S''
sg34
g60
sg35
g7
sg36
g37
sg40
(dp79
sg42
g63
sg43
g64
sg44
S''
sbsS'clear'
p80
(ihappydoclib.parseinfo.functioninfo
FunctionInfo
p81
(dp82
g4
((dp83
(dp84
tp85
sg17
(dp86
sg19
(S'self'
p87
tp88
sg24
(dp89
g87
(NNNtp90
ssg31
g32
sg33
S''
sg34
g80
sg35
g7
sg36
g37
sg40
(dp91
sg42
g83
sg43
g84
sg44
S''
sbsS'drawText'
p92
(ihappydoclib.parseinfo.functioninfo
FunctionInfo
p93
(dp94
g4
((dp95
(dp96
tp97
sg17
(dp98
sg19
(S'self'
p99
S'text'
p100
S'font'
p101
S'fontsize'
p102
S'x'
S'y'
S'color'
p103
S'bg'
p104
tp105
sg24
(dp106
g104
(I1
S'"white"'
Ntp107
sg103
(NNNtp108
sg100
(NNNtp109
sg99
(NNNtp110
sg102
(NNNtp111
sS'y'
(NNNtp112
sS'x'
(NNNtp113
sg101
(NNNtp114
ssg31
g32
sg33
S''
sg34
g92
sg35
g7
sg36
g37
sg40
(dp115
sg42
g95
sg43
g96
sg44
S''
sbsS'pack_forget'
p116
(ihappydoclib.parseinfo.functioninfo
FunctionInfo
p117
(dp118
g4
((dp119
(dp120
tp121
sg17
(dp122
sg19
(S'self'
p123
tp124
sg24
(dp125
g123
(NNNtp126
ssg31
g32
sg33
S''
sg34
g116
sg35
g7
sg36
g37
sg40
(dp127
sg42
g119
sg43
g120
sg44
S''
sbsS'setMolecule'
p128
(ihappydoclib.parseinfo.functioninfo
FunctionInfo
p129
(dp130
g4
((dp131
(dp132
tp133
sg17
(dp134
sg19
(S'self'
p135
S'mol'
p136
tp137
sg24
(dp138
g135
(NNNtp139
sg136
(NNNtp140
ssg31
g32
sg33
S''
sg34
g128
sg35
g7
sg36
g37
sg40
(dp141
sg42
g131
sg43
g132
sg44
S''
sbsS'postscript'
p142
(ihappydoclib.parseinfo.functioninfo
FunctionInfo
p143
(dp144
g4
((dp145
(dp146
tp147
sg17
(dp148
sg19
(S'self'
p149
S'*a'
p150
S'*kw'
p151
tp152
sg24
(dp153
g149
(NNNtp154
sg151
(NNNtp155
sg150
(NNNtp156
ssg31
g32
sg33
S'return a postscript image of the current molecule arguments\n        are sent to the Tkinter canvas postscript method'
p157
sg34
g142
sg35
g7
sg36
g37
sg40
(dp158
sg42
g145
sg43
g146
sg44
S''
sbsS'grid'
p159
(ihappydoclib.parseinfo.functioninfo
FunctionInfo
p160
(dp161
g4
((dp162
(dp163
tp164
sg17
(dp165
sg19
(S'self'
p166
S'*a'
p167
S'*kw'
p168
tp169
sg24
(dp170
g166
(NNNtp171
sg168
(NNNtp172
sg167
(NNNtp173
ssg31
g32
sg33
S''
sg34
g159
sg35
g7
sg36
g37
sg40
(dp174
sg42
g162
sg43
g163
sg44
S''
sbsS'__init__'
p175
(ihappydoclib.parseinfo.functioninfo
FunctionInfo
p176
(dp177
g4
((dp178
(dp179
tp180
sg17
(dp181
sg19
(S'self'
p182
S'master'
p183
S'height'
p184
S'width'
p185
S'drawAromatic'
p186
tp187
sg24
(dp188
g185
(NNNtp189
sg182
(NNNtp190
sg183
(NNNtp191
sg186
(I1
S'1'
Ntp192
sg184
(NNNtp193
ssg31
g32
sg33
S''
sg34
g175
sg35
g7
sg36
g37
sg40
(dp194
sg42
g178
sg43
g179
sg44
S''
sbsS'pack'
p195
(ihappydoclib.parseinfo.functioninfo
FunctionInfo
p196
(dp197
g4
((dp198
(dp199
tp200
sg17
(dp201
sg19
(S'self'
p202
S'*a'
p203
S'*kw'
p204
tp205
sg24
(dp206
g202
(NNNtp207
sg204
(NNNtp208
sg203
(NNNtp209
ssg31
g32
sg33
S''
sg34
g195
sg35
g7
sg36
g37
sg40
(dp210
sg42
g198
sg43
g199
sg44
S''
sbstp211
sg31
g32
sg33
S''
sS'_class_member_info'
p212
(lp213
sg34
g6
sg35
g2
sg36
g37
sS'_base_class_info'
p214
(lp215
sg40
(dp216
sg42
g9
sg43
g10
sg44
S''
sbsS'Drawer'
p217
(ihappydoclib.parseinfo.classinfo
ClassInfo
p218
(dp219
g4
((dp220
(dp221
S'addPoint'
p222
(ihappydoclib.parseinfo.functioninfo
FunctionInfo
p223
(dp224
g4
((dp225
(dp226
tp227
sg17
(dp228
sg19
(S'self'
p229
S'renderer'
p230
S'point'
p231
tp232
sg24
(dp233
g229
(NNNtp234
sg230
(NNNtp235
sg231
(NNNtp236
ssg31
g32
sg33
S''
sg34
g222
sg35
g218
sg36
g37
sg40
(dp237
sg42
g225
sg43
g226
sg44
S''
sbsS'draw'
p238
(ihappydoclib.parseinfo.functioninfo
FunctionInfo
p239
(dp240
g4
((dp241
(dp242
tp243
sg17
(dp244
sg19
(S'self'
p245
S'renderer'
p246
tp247
sg24
(dp248
g245
(NNNtp249
sg246
(NNNtp250
ssg31
g32
sg33
S'draw the molecule to the canvas'
p251
sg34
g238
sg35
g218
sg36
g37
sg40
(dp252
sg42
g241
sg43
g242
sg44
S''
sbsS'setupComponent'
p253
(ihappydoclib.parseinfo.functioninfo
FunctionInfo
p254
(dp255
g4
((dp256
(dp257
tp258
sg17
(dp259
sg19
(S'self'
p260
S'atoms'
p261
S'bonds'
p262
tp263
sg24
(dp264
g260
(NNNtp265
sg262
(NNNtp266
sg261
(NNNtp267
ssg31
g32
sg33
S'(atoms, bonds) setup to draw a portion of the molecule using\n        only atoms and bonds.'
p268
sg34
g253
sg35
g218
sg36
g37
sg40
(dp269
sg42
g256
sg43
g257
sg44
S''
sbsS'setMolecule'
p270
(ihappydoclib.parseinfo.functioninfo
FunctionInfo
p271
(dp272
g4
((dp273
(dp274
tp275
sg17
(dp276
sg19
(S'self'
p277
S'molecule'
p278
S'name'
p279
S'atoms'
p280
S'bonds'
p281
tp282
sg24
(dp283
g277
(NNNtp284
sg281
(I1
S'None'
Ntp285
sg278
(NNNtp286
sg279
(I1
S'None'
Ntp287
sg280
(I1
S'None'
Ntp288
ssg31
g32
sg33
S'(molecule, name, atoms=None, bonds=None) set the molecule\n        to be drawn.  Use only atoms and bonds if a portion is desired and drawAromatic\n        controls whether aromatic rings are drawn'
p289
sg34
g270
sg35
g218
sg36
g37
sg40
(dp290
sg42
g273
sg43
g274
sg44
S''
sbsS'addCircle'
p291
(ihappydoclib.parseinfo.functioninfo
FunctionInfo
p292
(dp293
g4
((dp294
(dp295
tp296
sg17
(dp297
sg19
(S'self'
p298
S'renderer'
p299
S'circle'
p300
tp301
sg24
(dp302
g298
(NNNtp303
sg300
(NNNtp304
sg299
(NNNtp305
ssg31
g32
sg33
S''
sg34
g291
sg35
g218
sg36
g37
sg40
(dp306
sg42
g294
sg43
g295
sg44
S''
sbsS'setupMolecule'
p307
(ihappydoclib.parseinfo.functioninfo
FunctionInfo
p308
(dp309
g4
((dp310
(dp311
tp312
sg17
(dp313
sg19
(S'self'
p314
tp315
sg24
(dp316
g314
(NNNtp317
ssg31
g32
sg33
S'->setup to draw the entire molecule'
p318
sg34
g307
sg35
g218
sg36
g37
sg40
(dp319
sg42
g310
sg43
g311
sg44
S''
sbsS'addLine'
p320
(ihappydoclib.parseinfo.functioninfo
FunctionInfo
p321
(dp322
g4
((dp323
(dp324
tp325
sg17
(dp326
sg19
(S'self'
p327
S'renderer'
p328
S'bondtype'
p329
S'line'
p330
tp331
sg24
(dp332
g327
(NNNtp333
sg329
(NNNtp334
sg330
(NNNtp335
sg328
(NNNtp336
ssg31
g32
sg33
S''
sg34
g320
sg35
g218
sg36
g37
sg40
(dp337
sg42
g323
sg43
g324
sg44
S''
sbsS'setComponentNumber'
p338
(ihappydoclib.parseinfo.functioninfo
FunctionInfo
p339
(dp340
g4
((dp341
(dp342
tp343
sg17
(dp344
sg19
(S'self'
p345
S'component'
p346
tp347
sg24
(dp348
g345
(NNNtp349
sg346
(NNNtp350
ssg31
g32
sg33
S''
sg34
g338
sg35
g218
sg36
g37
sg40
(dp351
sg42
g341
sg43
g342
sg44
S''
sbsS'__init__'
p352
(ihappydoclib.parseinfo.functioninfo
FunctionInfo
p353
(dp354
g4
((dp355
(dp356
tp357
sg17
(dp358
sg19
(S'self'
p359
S'drawAromatic'
p360
S'coordinateGenerator'
p361
tp362
sg24
(dp363
g359
(NNNtp364
sg360
(I1
S'1'
Ntp365
sg361
(I1
S'GraphViz.addCoords'
Ntp366
ssg31
g32
sg33
S''
sg34
g352
sg35
g218
sg36
g37
sg40
(dp367
sg42
g355
sg43
g356
sg44
S''
sbstp368
sg31
g32
sg33
S''
sg212
(lp369
sg34
g217
sg35
g2
sg36
g37
sg214
(lp370
sg40
(dp371
sg42
g220
sg43
g221
sg44
S''
sbs(dp372
S'getComponents'
p373
(ihappydoclib.parseinfo.functioninfo
FunctionInfo
p374
(dp375
g4
((dp376
(dp377
tp378
sg17
(dp379
sg19
(S'molecule'
p380
tp381
sg24
(dp382
g380
(NNNtp383
ssg31
g32
sg33
S''
sg34
g373
sg35
g2
sg36
g37
sg40
(dp384
sg42
g376
sg43
g377
sg44
S''
sbsS'_recurse'
p385
(ihappydoclib.parseinfo.functioninfo
FunctionInfo
p386
(dp387
g4
((dp388
(dp389
tp390
sg17
(dp391
sg19
(S'atom'
p392
S'visited'
p393
tp394
sg24
(dp395
g393
(NNNtp396
sg392
(NNNtp397
ssg31
g32
sg33
S''
sg34
g385
sg35
g2
sg36
g37
sg40
(dp398
sg42
g388
sg43
g389
sg44
g39
sbstp399
sS'_import_info'
p400
(ihappydoclib.parseinfo.imports
ImportInfo
p401
(dp402
S'_named_imports'
p403
(dp404
S'LineGenerator'
p405
(lp406
S'make_double_line'
p407
asS'Tkinter'
p408
(lp409
S'*'
asS'Drawables'
p410
(lp411
S'generateDrawables'
p412
assS'_straight_imports'
p413
(lp414
S'GraphViz'
p415
asbsg31
g32
sg33
S''
sg34
S'MoleculeDrawerNew'
p416
sg35
Nsg36
g37
sg40
(dp417
S'include_comments'
p418
I1
sS'cacheFilePrefix'
p419
S'.happydoc.'
p420
sS'useCache'
p421
I1
sS'docStringFormat'
p422
S'StructuredText'
p423
ssg42
g5
sg43
g372
sg44
S''
sbt.