(S'7f2210613c44962221805a1b28aa76d6'
p1
(ihappydoclib.parseinfo.moduleinfo
ModuleInfo
p2
(dp3
S'_namespaces'
p4
((dp5
S'TkDrawer'
p6
(ihappydoclib.parseinfo.classinfo
ClassInfo
p7
(dp8
g4
((dp9
(dp10
tp11
sS'_filename'
p12
S'../python/frowns/Depict/TkMoleculeDrawer.py'
p13
sS'_docstring'
p14
S''
sS'_class_member_info'
p15
(lp16
sS'_name'
p17
g6
sS'_parent'
p18
g2
sS'_comment_info'
p19
(dp20
sS'_base_class_info'
p21
(lp22
S'DrawMolHarness'
p23
aS'TkMixin'
p24
asS'_configuration_values'
p25
(dp26
sS'_class_info'
p27
g9
sS'_function_info'
p28
g10
sS'_comments'
p29
S''
sbsS'TkMixin'
p30
(ihappydoclib.parseinfo.classinfo
ClassInfo
p31
(dp32
g4
((dp33
(dp34
S'pack_forget'
p35
(ihappydoclib.parseinfo.functioninfo
FunctionInfo
p36
(dp37
g4
((dp38
(dp39
tp40
sS'_exception_info'
p41
(dp42
sS'_parameter_names'
p43
(S'self'
p44
tp45
sS'_parameter_info'
p46
(dp47
g44
(NNNtp48
ssg12
g13
sg14
S''
sg17
g35
sg18
g31
sg19
g20
sg25
(dp49
sg27
g38
sg28
g39
sg29
S''
sbsS'_resize'
p50
(ihappydoclib.parseinfo.functioninfo
FunctionInfo
p51
(dp52
g4
((dp53
(dp54
tp55
sg41
(dp56
sg43
(S'self'
p57
S'event'
p58
tp59
sg46
(dp60
g57
(NNNtp61
sg58
(NNNtp62
ssg12
g13
sg14
S'(event) -> resive the drawing to event.height, event.width'
p63
sg17
g50
sg18
g31
sg19
g20
sg25
(dp64
sg27
g53
sg28
g54
sg29
S''
sbsS'_clear'
p65
(ihappydoclib.parseinfo.functioninfo
FunctionInfo
p66
(dp67
g4
((dp68
(dp69
tp70
sg41
(dp71
sg43
(S'self'
p72
tp73
sg46
(dp74
g72
(NNNtp75
ssg12
g13
sg14
S''
sg17
g65
sg18
g31
sg19
g20
sg25
(dp76
sg27
g68
sg28
g69
sg29
S''
sbsS'_init'
p77
(ihappydoclib.parseinfo.functioninfo
FunctionInfo
p78
(dp79
g4
((dp80
(dp81
tp82
sg41
(dp83
sg43
(S'self'
p84
S'master'
p85
S'height'
p86
S'width'
p87
tp88
sg46
(dp89
g87
(NNNtp90
sg84
(NNNtp91
sg85
(NNNtp92
sg86
(NNNtp93
ssg12
g13
sg14
S''
sg17
g77
sg18
g31
sg19
g20
sg25
(dp94
sg27
g80
sg28
g81
sg29
S''
sbsS'postscript'
p95
(ihappydoclib.parseinfo.functioninfo
FunctionInfo
p96
(dp97
g4
((dp98
(dp99
tp100
sg41
(dp101
sg43
(S'self'
p102
S'*a'
p103
S'*kw'
p104
tp105
sg46
(dp106
g102
(NNNtp107
sg104
(NNNtp108
sg103
(NNNtp109
ssg12
g13
sg14
S'return a postscript image of the current molecule arguments\n        are sent to the Tkinter canvas postscript method'
p110
sg17
g95
sg18
g31
sg19
g20
sg25
(dp111
sg27
g98
sg28
g99
sg29
S''
sbsS'_drawLine'
p112
(ihappydoclib.parseinfo.functioninfo
FunctionInfo
p113
(dp114
g4
((dp115
(dp116
tp117
sg41
(dp118
sg43
(S'self'
p119
S'x1'
p120
S'y1'
p121
S'x2'
p122
S'y2'
p123
S'color'
p124
tp125
sg46
(dp126
g123
(NNNtp127
sg124
(NNNtp128
sg119
(NNNtp129
sg122
(NNNtp130
sg121
(NNNtp131
sg120
(NNNtp132
ssg12
g13
sg14
S''
sg17
g112
sg18
g31
sg19
g20
sg25
(dp133
sg27
g115
sg28
g116
sg29
S''
sbsS'grid'
p134
(ihappydoclib.parseinfo.functioninfo
FunctionInfo
p135
(dp136
g4
((dp137
(dp138
tp139
sg41
(dp140
sg43
(S'self'
p141
S'*a'
p142
S'*kw'
p143
tp144
sg46
(dp145
g141
(NNNtp146
sg143
(NNNtp147
sg142
(NNNtp148
ssg12
g13
sg14
S''
sg17
g134
sg18
g31
sg19
g20
sg25
(dp149
sg27
g137
sg28
g138
sg29
S''
sbsS'_drawOval'
p150
(ihappydoclib.parseinfo.functioninfo
FunctionInfo
p151
(dp152
g4
((dp153
(dp154
tp155
sg41
(dp156
sg43
(S'self'
p157
S'x'
S'y'
S'xh'
p158
S'yh'
p159
tp160
sg46
(dp161
S'y'
(NNNtp162
sS'x'
(NNNtp163
sg157
(NNNtp164
sg158
(NNNtp165
sg159
(NNNtp166
ssg12
g13
sg14
S''
sg17
g150
sg18
g31
sg19
g20
sg25
(dp167
sg27
g153
sg28
g154
sg29
S''
sbsS'_drawText'
p168
(ihappydoclib.parseinfo.functioninfo
FunctionInfo
p169
(dp170
g4
((dp171
(dp172
tp173
sg41
(dp174
sg43
(S'self'
p175
S'text'
p176
S'font'
p177
S'fontsize'
p178
S'x'
S'y'
S'color'
p179
S'bg'
p180
tp181
sg46
(dp182
g180
(I1
S'"white"'
Ntp183
sg179
(NNNtp184
sg176
(NNNtp185
sg175
(NNNtp186
sg178
(NNNtp187
sS'y'
(NNNtp188
sS'x'
(NNNtp189
sg177
(NNNtp190
ssg12
g13
sg14
S''
sg17
g168
sg18
g31
sg19
g20
sg25
(dp191
sg27
g171
sg28
g172
sg29
S''
sbsS'pack'
p192
(ihappydoclib.parseinfo.functioninfo
FunctionInfo
p193
(dp194
g4
((dp195
(dp196
tp197
sg41
(dp198
sg43
(S'self'
p199
S'*a'
p200
S'*kw'
p201
tp202
sg46
(dp203
g199
(NNNtp204
sg201
(NNNtp205
sg200
(NNNtp206
ssg12
g13
sg14
S''
sg17
g192
sg18
g31
sg19
g20
sg25
(dp207
sg27
g195
sg28
g196
sg29
S''
sbstp208
sg12
g13
sg14
S''
sg15
(lp209
sg17
g30
sg18
g2
sg19
g20
sg21
(lp210
sg25
(dp211
sg27
g33
sg28
g34
sg29
S''
sbs(dp212
tp213
sS'_import_info'
p214
(ihappydoclib.parseinfo.imports
ImportInfo
p215
(dp216
S'_named_imports'
p217
(dp218
S'Tkinter'
p219
(lp220
S'*'
asS'MoleculeDrawer'
p221
(lp222
S'DrawMolHarness'
p223
assS'_straight_imports'
p224
(lp225
sbsg12
g13
sg14
S''
sg17
S'TkMoleculeDrawer'
p226
sg18
Nsg19
g20
sg25
(dp227
S'include_comments'
p228
I1
sS'cacheFilePrefix'
p229
S'.happydoc.'
p230
sS'useCache'
p231
I1
sS'docStringFormat'
p232
S'StructuredText'
p233
ssg27
g5
sg28
g212
sg29
S''
sbt.