(S'9364dda56f0ec0ea32d748574b517361'
p1
(ihappydoclib.parseinfo.moduleinfo
ModuleInfo
p2
(dp3
S'_namespaces'
p4
((dp5
S'Error'
p6
(ihappydoclib.parseinfo.classinfo
ClassInfo
p7
(dp8
g4
((dp9
(dp10
tp11
sS'_filename'
p12
S'../python/frowns/Depict/GraphViz.py'
p13
sS'_docstring'
p14
S''
sS'_class_member_info'
p15
(lp16
sS'_name'
p17
g6
sS'_parent'
p18
g2
sS'_comment_info'
p19
(dp20
sS'_base_class_info'
p21
(lp22
S'Exception'
p23
asS'_configuration_values'
p24
(dp25
sS'_class_info'
p26
g9
sS'_function_info'
p27
g10
sS'_comments'
p28
S''
sbs(dp29
S'addCoords'
p30
(ihappydoclib.parseinfo.functioninfo
FunctionInfo
p31
(dp32
g4
((dp33
(dp34
tp35
sS'_exception_info'
p36
(dp37
S'Error( "Unable to locate neato" )'
p38
NsS'Error( "neato failed depiction" )'
p39
NssS'_parameter_names'
p40
(S'mol'
p41
tp42
sS'_parameter_info'
p43
(dp44
g41
(NNNtp45
ssg12
g13
sg14
S"(mol) Assign x,y coordinates to the atoms of a molecule\n    using AT&T's graph layout algorithm.  This technique is\n    very fast but doesn't look very good so use with\n    caution.\n\n    The executable 'neato' must exist in the search path"
p46
sg17
g30
sg18
g2
sg19
g20
sg24
(dp47
sg26
g33
sg27
g34
sg28
S''
sbstp48
sS'_import_info'
p49
(ihappydoclib.parseinfo.imports
ImportInfo
p50
(dp51
S'_named_imports'
p52
(dp53
sS'_straight_imports'
p54
(lp55
S'os'
p56
aS're'
p57
asbsg12
g13
sg14
S'"""Render a molecule using AT&T\'s GraphViz.\n\nThis is a poor man\'s rendering package and should be used\naccordingly.  It is intended merely as a debugging tool\nto see if molecules are formed somewhat correctly as\ndebugging smiles strings tends to make my brain wilt.\n\nThat being said, it\'s pretty cool :)  Be aware that while\nGraphViz is opensourced it is not free for commercial\napplications and any such use must be cleared with AT&T.\n\nYou may find GraphViz here\nhttp://www.research.att.com/sw/tools/graphviz/\nbut please read their FAQ and license before downloading.\n\nThis package must be able to find the \'neato\' executable\nin the search path.\n"""'
p58
sg17
S'GraphViz'
p59
sg18
Nsg19
g20
sg24
(dp60
S'include_comments'
p61
I1
sS'cacheFilePrefix'
p62
S'.happydoc.'
p63
sS'useCache'
p64
I1
sS'docStringFormat'
p65
S'StructuredText'
p66
ssg26
g5
sg27
g29
sg28
S''
sbt.