(S'78f90af6ce3649eb9ee69041d1487ca6'
p1
(ihappydoclib.parseinfo.moduleinfo
ModuleInfo
p2
(dp3
S'_namespaces'
p4
((dp5
(dp6
S'make_double_line_slow'
p7
(ihappydoclib.parseinfo.functioninfo
FunctionInfo
p8
(dp9
g4
((dp10
(dp11
tp12
sS'_exception_info'
p13
(dp14
sS'_parameter_names'
p15
(S'p1'
p16
S'p2'
p17
tp18
sS'_parameter_info'
p19
(dp20
g17
(NNNtp21
sg16
(NNNtp22
ssS'_filename'
p23
S'../python/frowns/Depict/LineGenerator.py'
p24
sS'_docstring'
p25
S''
sS'_name'
p26
g7
sS'_parent'
p27
g2
sS'_comment_info'
p28
(dp29
sS'_configuration_values'
p30
(dp31
sS'_class_info'
p32
g10
sS'_function_info'
p33
g11
sS'_comments'
p34
S''
sbsS'R'
(ihappydoclib.parseinfo.functioninfo
FunctionInfo
p35
(dp36
g4
((dp37
(dp38
tp39
sg13
(dp40
sg15
(S'theta'
p41
tp42
sg19
(dp43
g41
(NNNtp44
ssg23
g24
sg25
S''
sg26
S'R'
sg27
g2
sg28
g29
sg30
(dp45
sg32
g37
sg33
g38
sg34
S''
sbsS'T'
(ihappydoclib.parseinfo.functioninfo
FunctionInfo
p46
(dp47
g4
((dp48
(dp49
tp50
sg13
(dp51
sg15
(S'tx'
p52
S'ty'
p53
tp54
sg19
(dp55
g52
(NNNtp56
sg53
(NNNtp57
ssg23
g24
sg25
S''
sg26
S'T'
sg27
g2
sg28
g29
sg30
(dp58
sg32
g48
sg33
g49
sg34
S''
sbsS'make_double_line'
p59
(ihappydoclib.parseinfo.functioninfo
FunctionInfo
p60
(dp61
g4
((dp62
(dp63
tp64
sg13
(dp65
sg15
(S'p1'
p66
S'p2'
p67
S'split'
p68
tp69
sg19
(dp70
g67
(NNNtp71
sg66
(NNNtp72
sg68
(I1
S'3'
Ntp73
ssg23
g24
sg25
S''
sg26
g59
sg27
g2
sg28
g29
sg30
(dp74
sg32
g62
sg33
g63
sg34
S''
sbstp75
sS'_import_info'
p76
(ihappydoclib.parseinfo.imports
ImportInfo
p77
(dp78
S'_named_imports'
p79
(dp80
S'math'
p81
(lp82
S'cos'
p83
aS'sin'
p84
aS'pi'
p85
aS'atan2'
p86
asS'Numeric'
p87
(lp88
S'*'
assS'_straight_imports'
p89
(lp90
sbsg23
g24
sg25
S'"""Routines to make lines\n"""'
p91
sg26
S'LineGenerator'
p92
sg27
Nsg28
g29
sg30
(dp93
S'include_comments'
p94
I1
sS'cacheFilePrefix'
p95
S'.happydoc.'
p96
sS'useCache'
p97
I1
sS'docStringFormat'
p98
S'StructuredText'
p99
ssg32
g5
sg33
g6
sg34
S''
sbt.