(S'bab8a44abe85a7257f8658e5acfd0077'
p1
(ihappydoclib.parseinfo.moduleinfo
ModuleInfo
p2
(dp3
S'_namespaces'
p4
((dp5
S'ScrollingFrame'
p6
(ihappydoclib.parseinfo.classinfo
ClassInfo
p7
(dp8
g4
((dp9
(dp10
S'unbind'
p11
(ihappydoclib.parseinfo.functioninfo
FunctionInfo
p12
(dp13
g4
((dp14
(dp15
tp16
sS'_exception_info'
p17
(dp18
sS'_parameter_names'
p19
(S'self'
p20
S'cnf'
p21
S'**kw'
p22
tp23
sS'_parameter_info'
p24
(dp25
g21
(I1
S'{}'
Ntp26
sg20
(NNNtp27
sg22
(NNNtp28
ssS'_filename'
p29
S'../python/frowns/Depict/ScrollingFrame.py'
p30
sS'_docstring'
p31
S''
sS'_name'
p32
g11
sS'_parent'
p33
g7
sS'_comment_info'
p34
(dp35
(S'ScrollingFrame'
p36
S'update'
tp37
S' Redefine update() to create scrollbars if frame size exceeds window size\n'
p38
s(g36
S'pack'
tp39
S' Force pack to pack both canvas and frame\n'
p40
s(g36
tp41
S" This object acts very much like a Frame, but if it gets too big to display on\n the screen, it creates scrollbars that let the user scroll around it's viewing\n area.\n"
p42
s(g36
S'bind'
tp43
S' Force bind to bind to container frame, not internal frame (which would probably\n cause a crash)\n'
p44
s(g36
S'unbind'
tp45
S' Force bind to bind to container frame, not internal frame (which would probably\n cause a crash)\n'
p46
ssS'_configuration_values'
p47
(dp48
sS'_class_info'
p49
g14
sS'_function_info'
p50
g15
sS'_comments'
p51
g46
sbsS'ResizeWindowFunc'
p52
(ihappydoclib.parseinfo.functioninfo
FunctionInfo
p53
(dp54
g4
((dp55
(dp56
tp57
sg17
(dp58
sg19
(S'self'
p59
S'event'
p60
tp61
sg24
(dp62
g59
(NNNtp63
sg60
(NNNtp64
ssg29
g30
sg31
S''
sg32
g52
sg33
g7
sg34
g35
sg47
(dp65
sg49
g55
sg50
g56
sg51
S''
sbsS'bind'
p66
(ihappydoclib.parseinfo.functioninfo
FunctionInfo
p67
(dp68
g4
((dp69
(dp70
tp71
sg17
(dp72
sg19
(S'self'
p73
S'cnf'
p74
S'**kw'
p75
tp76
sg24
(dp77
g74
(I1
S'{}'
Ntp78
sg73
(NNNtp79
sg75
(NNNtp80
ssg29
g30
sg31
S''
sg32
g66
sg33
g7
sg34
g35
sg47
(dp81
sg49
g69
sg50
g70
sg51
g44
sbsS'update'
p82
(ihappydoclib.parseinfo.functioninfo
FunctionInfo
p83
(dp84
g4
((dp85
(dp86
tp87
sg17
(dp88
sg19
(S'self'
p89
tp90
sg24
(dp91
g89
(NNNtp92
ssg29
g30
sg31
S''
sg32
g82
sg33
g7
sg34
g35
sg47
(dp93
sg49
g85
sg50
g86
sg51
g38
sbsS'__init__'
p94
(ihappydoclib.parseinfo.functioninfo
FunctionInfo
p95
(dp96
g4
((dp97
(dp98
tp99
sg17
(dp100
sg19
(S'self'
p101
S'parent'
p102
S'**kw'
p103
tp104
sg24
(dp105
g101
(NNNtp106
sg103
(NNNtp107
sg102
(I1
S'None'
Ntp108
ssg29
g30
sg31
S''
sg32
g94
sg33
g7
sg34
g35
sg47
(dp109
sg49
g97
sg50
g98
sg51
S''
sbsS'pack'
p110
(ihappydoclib.parseinfo.functioninfo
FunctionInfo
p111
(dp112
g4
((dp113
(dp114
tp115
sg17
(dp116
sg19
(S'self'
p117
S'cnf'
p118
S'**kw'
p119
tp120
sg24
(dp121
g118
(I1
S'{}'
Ntp122
sg117
(NNNtp123
sg119
(NNNtp124
ssg29
g30
sg31
S''
sg32
g110
sg33
g7
sg34
g35
sg47
(dp125
sg49
g113
sg50
g114
sg51
g40
sbstp126
sg29
g30
sg31
S''
sS'_class_member_info'
p127
(lp128
sg32
g6
sg33
g2
sg34
g35
sS'_base_class_info'
p129
(lp130
S'Frame'
p131
asg47
(dp132
sg49
g9
sg50
g10
sg51
g42
sbs(dp133
tp134
sS'_import_info'
p135
(ihappydoclib.parseinfo.imports
ImportInfo
p136
(dp137
S'_named_imports'
p138
(dp139
S'Tkinter'
p140
(lp141
S'*'
aS'_cnfmerge'
p142
assS'_straight_imports'
p143
(lp144
sbsg29
g30
sg31
S''
sg32
S'ScrollingFrame'
p145
sg33
Nsg34
g35
sg47
(dp146
S'include_comments'
p147
I1
sS'cacheFilePrefix'
p148
S'.happydoc.'
p149
sS'useCache'
p150
I1
sS'docStringFormat'
p151
S'StructuredText'
p152
ssg49
g5
sg50
g133
sg51
S''
sbt.