(S'8e2b709bff3f0c766b79cd4b80999eee'
p1
(ihappydoclib.parseinfo.moduleinfo
ModuleInfo
p2
(dp3
S'_namespaces'
p4
((dp5
S'wxMixin'
p6
(ihappydoclib.parseinfo.classinfo
ClassInfo
p7
(dp8
g4
((dp9
(dp10
S'_drawPoly'
p11
(ihappydoclib.parseinfo.functioninfo
FunctionInfo
p12
(dp13
g4
((dp14
(dp15
tp16
sS'_exception_info'
p17
(dp18
sS'_parameter_names'
p19
(S'self'
p20
S'coords'
p21
S'color'
p22
tp23
sS'_parameter_info'
p24
(dp25
g22
(I1
S'"black"'
Ntp26
sg20
(NNNtp27
sg21
(NNNtp28
ssS'_filename'
p29
S'../python/frowns/Depict/wxMoleculeDrawer.py'
p30
sS'_docstring'
p31
S''
sS'_name'
p32
g11
sS'_parent'
p33
g7
sS'_comment_info'
p34
(dp35
sS'_configuration_values'
p36
(dp37
sS'_class_info'
p38
g14
sS'_function_info'
p39
g15
sS'_comments'
p40
S''
sbsS'_clear'
p41
(ihappydoclib.parseinfo.functioninfo
FunctionInfo
p42
(dp43
g4
((dp44
(dp45
tp46
sg17
(dp47
sg19
(S'self'
p48
tp49
sg24
(dp50
g48
(NNNtp51
ssg29
g30
sg31
S''
sg32
g41
sg33
g7
sg34
g35
sg36
(dp52
sg38
g44
sg39
g45
sg40
S''
sbsS'_init'
p53
(ihappydoclib.parseinfo.functioninfo
FunctionInfo
p54
(dp55
g4
((dp56
(dp57
tp58
sg17
(dp59
sg19
(S'self'
p60
S'parent'
p61
S'height'
p62
S'width'
p63
tp64
sg24
(dp65
g63
(I1
S'None'
Ntp66
sg60
(NNNtp67
sg61
(NNNtp68
sg62
(I1
S'None'
Ntp69
ssg29
g30
sg31
S''
sg32
g53
sg33
g7
sg34
g35
sg36
(dp70
sg38
g56
sg39
g57
sg40
S''
sbsS'_drawLine'
p71
(ihappydoclib.parseinfo.functioninfo
FunctionInfo
p72
(dp73
g4
((dp74
(dp75
tp76
sg17
(dp77
sg19
(S'self'
p78
S'x1'
p79
S'y1'
p80
S'x2'
p81
S'y2'
p82
S'color'
p83
tp84
sg24
(dp85
g82
(NNNtp86
sg83
(NNNtp87
sg78
(NNNtp88
sg81
(NNNtp89
sg80
(NNNtp90
sg79
(NNNtp91
ssg29
g30
sg31
S''
sg32
g71
sg33
g7
sg34
g35
sg36
(dp92
sg38
g74
sg39
g75
sg40
S''
sbsS'OnSize'
p93
(ihappydoclib.parseinfo.functioninfo
FunctionInfo
p94
(dp95
g4
((dp96
(dp97
tp98
sg17
(dp99
sg19
(S'self'
p100
S'event'
p101
tp102
sg24
(dp103
g100
(NNNtp104
sg101
(NNNtp105
ssg29
g30
sg31
S''
sg32
g93
sg33
g7
sg34
g35
sg36
(dp106
sg38
g96
sg39
g97
sg40
S''
sbsS'OnPaint'
p107
(ihappydoclib.parseinfo.functioninfo
FunctionInfo
p108
(dp109
g4
((dp110
(dp111
tp112
sg17
(dp113
sg19
(S'self'
p114
S'event'
p115
S'dc'
p116
tp117
sg24
(dp118
g114
(NNNtp119
sg115
(NNNtp120
sg116
(I1
S'None'
Ntp121
ssg29
g30
sg31
S''
sg32
g107
sg33
g7
sg34
g35
sg36
(dp122
sg38
g110
sg39
g111
sg40
S''
sbsS'_drawOval'
p123
(ihappydoclib.parseinfo.functioninfo
FunctionInfo
p124
(dp125
g4
((dp126
(dp127
tp128
sg17
(dp129
sg19
(S'self'
p130
S'x'
S'y'
S'xh'
p131
S'yh'
p132
tp133
sg24
(dp134
S'y'
(NNNtp135
sS'x'
(NNNtp136
sg130
(NNNtp137
sg131
(NNNtp138
sg132
(NNNtp139
ssg29
g30
sg31
S''
sg32
g123
sg33
g7
sg34
g35
sg36
(dp140
sg38
g126
sg39
g127
sg40
S''
sbsS'_drawText'
p141
(ihappydoclib.parseinfo.functioninfo
FunctionInfo
p142
(dp143
g4
((dp144
(dp145
tp146
sg17
(dp147
sg19
(S'self'
p148
S'text'
p149
S'font'
p150
S'fontsize'
p151
S'x'
S'y'
S'color'
p152
S'bg'
p153
tp154
sg24
(dp155
g153
(I1
S'"white"'
Ntp156
sg152
(NNNtp157
sg149
(NNNtp158
sg148
(NNNtp159
sg151
(NNNtp160
sS'y'
(NNNtp161
sS'x'
(NNNtp162
sg150
(NNNtp163
ssg29
g30
sg31
S''
sg32
g141
sg33
g7
sg34
g35
sg36
(dp164
sg38
g144
sg39
g145
sg40
S''
sbstp165
sg29
g30
sg31
S''
sS'_class_member_info'
p166
(lp167
sg32
g6
sg33
g2
sg34
g35
sS'_base_class_info'
p168
(lp169
S'wxScrolledWindow'
p170
asg36
(dp171
sg38
g9
sg39
g10
sg40
S''
sbsS'MoleculeDrawer'
p172
(ihappydoclib.parseinfo.classinfo
ClassInfo
p173
(dp174
g4
((dp175
(dp176
tp177
sg29
g30
sg31
S''
sg166
(lp178
sg32
g172
sg33
g2
sg34
g35
sg168
(lp179
S'MoleculeDrawer.DrawMolHarness'
p180
aS'wxMixin'
p181
asg36
(dp182
sg38
g175
sg39
g176
sg40
S''
sbs(dp183
tp184
sS'_import_info'
p185
(ihappydoclib.parseinfo.imports
ImportInfo
p186
(dp187
S'_named_imports'
p188
(dp189
S'wxPython.wx'
p190
(lp191
S'*'
assS'_straight_imports'
p192
(lp193
S'MoleculeDrawer'
p194
asbsg29
g30
sg31
S''
sg32
S'wxMoleculeDrawer'
p195
sg33
Nsg34
g35
sg36
(dp196
S'include_comments'
p197
I1
sS'cacheFilePrefix'
p198
S'.happydoc.'
p199
sS'useCache'
p200
I1
sS'docStringFormat'
p201
S'StructuredText'
p202
ssg38
g5
sg39
g183
sg40
S''
sbt.