(S'1709f792f712ca52e49785d7146d38d7'
p1
(ihappydoclib.parseinfo.moduleinfo
ModuleInfo
p2
(dp3
S'_namespaces'
p4
((dp5
S'Matcher'
p6
(ihappydoclib.parseinfo.classinfo
ClassInfo
p7
(dp8
g4
((dp9
(dp10
S'umatch'
p11
(ihappydoclib.parseinfo.functioninfo
FunctionInfo
p12
(dp13
g4
((dp14
(dp15
tp16
sS'_exception_info'
p17
(dp18
sS'_parameter_names'
p19
(S'self'
p20
S'h'
S'limit'
p21
tp22
sS'_parameter_info'
p23
(dp24
S'h'
(NNNtp25
sg20
(NNNtp26
sg21
(I1
S'-1'
Ntp27
ssS'_filename'
p28
S'../python/frowns/extensions/vflib/NetworkGraph/Matcher.py'
p29
sS'_docstring'
p30
S'(h, limit=-1)-> return all the unique matches against h\n        h MUST be a vflib ARGEDit object\n        \n        The match function returns up to limit matches of the\n        matcher topology on the matchableGraph topology.\n        This returns all the unique matches on a graph.\n        Permutations of the same match are not returned.\n        '
p31
sS'_name'
p32
g11
sS'_parent'
p33
g7
sS'_comment_info'
p34
(dp35
sS'_configuration_values'
p36
(dp37
sS'_class_info'
p38
g14
sS'_function_info'
p39
g15
sS'_comments'
p40
S''
sbsS'match'
p41
(ihappydoclib.parseinfo.functioninfo
FunctionInfo
p42
(dp43
g4
((dp44
(dp45
tp46
sg17
(dp47
sg19
(S'self'
p48
S'h'
S'limit'
p49
tp50
sg23
(dp51
S'h'
(NNNtp52
sg48
(NNNtp53
sg49
(I1
S'-1'
Ntp54
ssg28
g29
sg30
S'(h, limit=-1)-> return all matches against h\n        h MUST be a vflib.ARGEdit object\n        \n        The match function returns up to limit matches of the\n        matcher topology on the matchableGraph topology.\n        This returns all matches found in all permutations.\n        '
p55
sg32
g41
sg33
g7
sg34
g35
sg36
(dp56
sg38
g44
sg39
g45
sg40
S''
sbsS'__init__'
p57
(ihappydoclib.parseinfo.functioninfo
FunctionInfo
p58
(dp59
g4
((dp60
(dp61
tp62
sg17
(dp63
sg19
(S'self'
p64
S'argedit'
p65
S'undirected'
p66
tp67
sg23
(dp68
g64
(NNNtp69
sg66
(I1
S'1'
Ntp70
sg65
(NNNtp71
ssg28
g29
sg30
S'(argedit, undirected=1)->initialize the matching object\n        argedit MUST be a vflib.ARGEdit object\n        undirected specifies whether the initial graph was\n        directed or undirected.  This is used for pruning the\n        returned results'
p72
sg32
g57
sg33
g7
sg34
g35
sg36
(dp73
sg38
g60
sg39
g61
sg40
S''
sbstp74
sg28
g29
sg30
S''
sS'_class_member_info'
p75
(lp76
sg32
g6
sg33
g2
sg34
g35
sS'_base_class_info'
p77
(lp78
sg36
(dp79
sg38
g9
sg39
g10
sg40
S''
sbs(dp80
tp81
sS'_import_info'
p82
(ihappydoclib.parseinfo.imports
ImportInfo
p83
(dp84
S'_named_imports'
p85
(dp86
sS'_straight_imports'
p87
(lp88
S'vflib'
p89
asbsg28
g29
sg30
S''
sg32
S'Matcher'
p90
sg33
Nsg34
g35
sg36
(dp91
S'include_comments'
p92
I1
sS'cacheFilePrefix'
p93
S'.happydoc.'
p94
sS'useCache'
p95
I1
sS'docStringFormat'
p96
S'StructuredText'
p97
ssg38
g5
sg39
g80
sg40
S''
sbt.