(S'781dee83be69327cfc5e3ba1528b366b'
p1
(ihappydoclib.parseinfo.moduleinfo
ModuleInfo
p2
(dp3
S'_namespaces'
p4
((dp5
(dp6
S'topology_to_network'
p7
(ihappydoclib.parseinfo.functioninfo
FunctionInfo
p8
(dp9
g4
((dp10
(dp11
tp12
sS'_exception_info'
p13
(dp14
sS'_parameter_names'
p15
(S'nodes'
p16
S'edges'
p17
tp18
sS'_parameter_info'
p19
(dp20
g16
(NNNtp21
sg17
(NNNtp22
ssS'_filename'
p23
S'../python/frowns/extensions/vflib/NetworkGraph/topology.py'
p24
sS'_docstring'
p25
S'(nodes, edges) -> Graph\n    Given a simple topology description, generate a graph network\n    of the computers and cable types created by the network\n    \n     network_nodes is a list of computer addresses\n     network cables is a list of tuples of the form\n      (cabletype, computer1, computer2)'
p26
sS'_name'
p27
g7
sS'_parent'
p28
g2
sS'_comment_info'
p29
(dp30
sS'_configuration_values'
p31
(dp32
sS'_class_info'
p33
g10
sS'_function_info'
p34
g11
sS'_comments'
p35
S''
sbstp36
sS'_import_info'
p37
(ihappydoclib.parseinfo.imports
ImportInfo
p38
(dp39
S'_named_imports'
p40
(dp41
S'Node'
p42
(lp43
S'Node'
p44
asS'Graph'
p45
(lp46
S'Graph'
p47
asS'Edge'
p48
(lp49
S'Edge'
p50
assS'_straight_imports'
p51
(lp52
sbsg23
g24
sg25
S''
sg27
S'topology'
p53
sg28
Nsg29
g30
sg31
(dp54
S'include_comments'
p55
I1
sS'cacheFilePrefix'
p56
S'.happydoc.'
p57
sS'useCache'
p58
I1
sS'docStringFormat'
p59
S'StructuredText'
p60
ssg33
g5
sg34
g6
sg35
S''
sbt.