(S'a39bdbb86c93e9281c7b953c8350e01b'
p1
(ihappydoclib.parseinfo.moduleinfo
ModuleInfo
p2
(dp3
S'_namespaces'
p4
((dp5
S'Edge'
p6
(ihappydoclib.parseinfo.classinfo
ClassInfo
p7
(dp8
g4
((dp9
(dp10
S'clone'
p11
(ihappydoclib.parseinfo.functioninfo
FunctionInfo
p12
(dp13
g4
((dp14
(dp15
tp16
sS'_exception_info'
p17
(dp18
sS'_parameter_names'
p19
(S'self'
p20
tp21
sS'_parameter_info'
p22
(dp23
g20
(NNNtp24
ssS'_filename'
p25
S'../python/frowns/extensions/vflib/NetworkGraph/Edge.py'
p26
sS'_docstring'
p27
S''
sS'_name'
p28
g11
sS'_parent'
p29
g7
sS'_comment_info'
p30
(dp31
sS'_configuration_values'
p32
(dp33
sS'_class_info'
p34
g14
sS'_function_info'
p35
g15
sS'_comments'
p36
S''
sbsS'__eq__'
p37
(ihappydoclib.parseinfo.functioninfo
FunctionInfo
p38
(dp39
g4
((dp40
(dp41
tp42
sg17
(dp43
sg19
(S'self'
p44
S'edge'
p45
tp46
sg22
(dp47
g44
(NNNtp48
sg45
(NNNtp49
ssg25
g26
sg27
S''
sg28
g37
sg29
g7
sg30
g31
sg32
(dp50
sg34
g40
sg35
g41
sg36
S''
sbsS'__repr__'
p51
(ihappydoclib.parseinfo.functioninfo
FunctionInfo
p52
(dp53
g4
((dp54
(dp55
tp56
sg17
(dp57
sg19
(S'self'
p58
tp59
sg22
(dp60
g58
(NNNtp61
ssg25
g26
sg27
S''
sg28
g51
sg29
g7
sg30
g31
sg32
(dp62
sg34
g54
sg35
g55
sg36
S''
sbsS'__init__'
p63
(ihappydoclib.parseinfo.functioninfo
FunctionInfo
p64
(dp65
g4
((dp66
(dp67
tp68
sg17
(dp69
sg19
(S'self'
p70
S'cable'
p71
tp72
sg22
(dp73
g70
(NNNtp74
sg71
(NNNtp75
ssg25
g26
sg27
S''
sg28
g63
sg29
g7
sg30
g31
sg32
(dp76
sg34
g66
sg35
g67
sg36
S''
sbstp77
sg25
g26
sg27
S''
sS'_class_member_info'
p78
(lp79
sg28
g6
sg29
g2
sg30
g31
sS'_base_class_info'
p80
(lp81
S'GraphEdge'
p82
asg32
(dp83
sg34
g9
sg35
g10
sg36
S''
sbs(dp84
tp85
sS'_import_info'
p86
(ihappydoclib.parseinfo.imports
ImportInfo
p87
(dp88
S'_named_imports'
p89
(dp90
S'GraphObject'
p91
(lp92
S'GraphEdge'
p93
assS'_straight_imports'
p94
(lp95
sbsg25
g26
sg27
S''
sg28
S'Edge'
p96
sg29
Nsg30
g31
sg32
(dp97
S'include_comments'
p98
I1
sS'cacheFilePrefix'
p99
S'.happydoc.'
p100
sS'useCache'
p101
I1
sS'docStringFormat'
p102
S'StructuredText'
p103
ssg34
g5
sg35
g84
sg36
S''
sbt.