(S'cf0ea7c3a48fb28e0015c2bbc4e6c6b8'
p1
(ihappydoclib.parseinfo.moduleinfo
ModuleInfo
p2
(dp3
S'_namespaces'
p4
((dp5
S'PathSet'
p6
(ihappydoclib.parseinfo.classinfo
ClassInfo
p7
(dp8
g4
((dp9
(dp10
S'__len__'
p11
(ihappydoclib.parseinfo.functioninfo
FunctionInfo
p12
(dp13
g4
((dp14
(dp15
tp16
sS'_exception_info'
p17
(dp18
sS'_parameter_names'
p19
(S'self'
p20
tp21
sS'_parameter_info'
p22
(dp23
g20
(NNNtp24
ssS'_filename'
p25
S'../python/frowns/Smarts/SmartsMatcher.py'
p26
sS'_docstring'
p27
S''
sS'_name'
p28
g11
sS'_parent'
p29
g7
sS'_comment_info'
p30
(dp31
sS'_configuration_values'
p32
(dp33
sS'_class_info'
p34
g14
sS'_function_info'
p35
g15
sS'_comments'
p36
S''
sbsS'__getitem__'
p37
(ihappydoclib.parseinfo.functioninfo
FunctionInfo
p38
(dp39
g4
((dp40
(dp41
tp42
sg17
(dp43
sg19
(S'self'
p44
S'index'
p45
tp46
sg22
(dp47
g45
(NNNtp48
sg44
(NNNtp49
ssg25
g26
sg27
S''
sg28
g37
sg29
g7
sg30
g31
sg32
(dp50
sg34
g40
sg35
g41
sg36
S''
sbsS'__init__'
p51
(ihappydoclib.parseinfo.functioninfo
FunctionInfo
p52
(dp53
g4
((dp54
(dp55
tp56
sg17
(dp57
sg19
(S'self'
p58
S'atoms'
p59
S'bonds'
p60
S'paths'
p61
tp62
sg22
(dp63
g61
(NNNtp64
sg58
(NNNtp65
sg60
(NNNtp66
sg59
(NNNtp67
ssg25
g26
sg27
S'Contain all the matches of a target against a molecule\n        PathSet.atoms contain all the atoms hit\n        PathSet.bonds contain all the bonds hit\n        PathSet.paths contain all the paths hit'
p68
sg28
g51
sg29
g7
sg30
g31
sg32
(dp69
sg34
g54
sg35
g55
sg36
S''
sbstp70
sg25
g26
sg27
S''
sS'_class_member_info'
p71
(lp72
sg28
g6
sg29
g2
sg30
g31
sS'_base_class_info'
p73
(lp74
sg32
(dp75
sg34
g9
sg35
g10
sg36
S''
sbsS'Path'
p76
(ihappydoclib.parseinfo.classinfo
ClassInfo
p77
(dp78
g4
((dp79
(dp80
S'__init__'
p81
(ihappydoclib.parseinfo.functioninfo
FunctionInfo
p82
(dp83
g4
((dp84
(dp85
tp86
sg17
(dp87
sg19
(S'self'
p88
S'atoms'
p89
S'bonds'
p90
tp91
sg22
(dp92
g88
(NNNtp93
sg90
(NNNtp94
sg89
(NNNtp95
ssg25
g26
sg27
S'contains atoms and bonds for a single match\n        of a pattern against a molecule.\n        path.atoms conatain atoms\n        path.bonds contain bonds'
p96
sg28
g81
sg29
g77
sg30
g31
sg32
(dp97
sg34
g84
sg35
g85
sg36
S''
sbstp98
sg25
g26
sg27
S''
sg71
(lp99
sg28
g76
sg29
g2
sg30
g31
sg73
(lp100
sg32
(dp101
sg34
g79
sg35
g80
sg36
S''
sbsS'Matcher'
p102
(ihappydoclib.parseinfo.classinfo
ClassInfo
p103
(dp104
g4
((dp105
(dp106
S'umatch'
p107
(ihappydoclib.parseinfo.functioninfo
FunctionInfo
p108
(dp109
g4
((dp110
(dp111
tp112
sg17
(dp113
sg19
(S'self'
p114
S'molecule'
p115
S'limit'
p116
tp117
sg22
(dp118
g116
(I1
S'-1'
Ntp119
sg114
(NNNtp120
sg115
(NNNtp121
ssg25
g26
sg27
S'(h, limit=-1)-> return all the unique matches against\n        the molecule.\n        \n        The match function returns up to limit matches of the\n        matcher topology on the matchableGraph topology.\n        This returns all the unique matches on a graph.\n        Permutations of the same match are not returned.\n        '
p122
sg28
g107
sg29
g103
sg30
g31
sg32
(dp123
sg34
g110
sg35
g111
sg36
S''
sbsS'match'
p124
(ihappydoclib.parseinfo.functioninfo
FunctionInfo
p125
(dp126
g4
((dp127
(dp128
tp129
sg17
(dp130
sg19
(S'self'
p131
S'molecule'
p132
S'limit'
p133
tp134
sg22
(dp135
g133
(I1
S'-1'
Ntp136
sg131
(NNNtp137
sg132
(NNNtp138
ssg25
g26
sg27
S'(h, limit=-1)-> return all matches against the\n        target molecule\n\n        \n        The match function returns up to limit matches of the\n        matcher topology on the matchableGraph topology.\n        This returns all matches found in all permutations.\n        '
p139
sg28
g124
sg29
g103
sg30
g31
sg32
(dp140
sg34
g127
sg35
g128
sg36
S''
sbsS'dump'
p141
(ihappydoclib.parseinfo.functioninfo
FunctionInfo
p142
(dp143
g4
((dp144
(dp145
tp146
sg17
(dp147
sg19
(S'self'
p148
tp149
sg22
(dp150
g148
(NNNtp151
ssg25
g26
sg27
S''
sg28
g141
sg29
g103
sg30
g31
sg32
(dp152
sg34
g144
sg35
g145
sg36
S''
sbsS'__init__'
p153
(ihappydoclib.parseinfo.functioninfo
FunctionInfo
p154
(dp155
g4
((dp156
(dp157
tp158
sg17
(dp159
sg19
(S'self'
p160
S'pattern'
p161
tp162
sg22
(dp163
g161
(NNNtp164
sg160
(NNNtp165
ssg25
g26
sg27
S'(argedit, undirected=1)->initialize the matching object\n        argedit MUST be a vflib.ARGEdit object\n        undirected specifies whether the initial graph was\n        directed or undirected.  This is used for pruning the\n        returned results'
p166
sg28
g153
sg29
g103
sg30
g31
sg32
(dp167
sg34
g156
sg35
g157
sg36
S''
sbstp168
sg25
g26
sg27
S''
sg71
(lp169
sg28
g102
sg29
g2
sg30
g31
sg73
(lp170
sg32
(dp171
sg34
g105
sg35
g106
sg36
S''
sbs(dp172
S'to_argedit'
p173
(ihappydoclib.parseinfo.functioninfo
FunctionInfo
p174
(dp175
g4
((dp176
(dp177
tp178
sg17
(dp179
sg19
(S'molecule'
p180
tp181
sg22
(dp182
g180
(NNNtp183
ssg25
g26
sg27
S'molecule -> vflib editable graph'
p184
sg28
g173
sg29
g2
sg30
g31
sg32
(dp185
sg34
g176
sg35
g177
sg36
S''
sbstp186
sS'_import_info'
p187
(ihappydoclib.parseinfo.imports
ImportInfo
p188
(dp189
S'_named_imports'
p190
(dp191
sS'_straight_imports'
p192
(lp193
S'vflib'
p194
asbsg25
g26
sg27
S''
sg28
S'SmartsMatcher'
p195
sg29
Nsg30
g31
sg32
(dp196
S'include_comments'
p197
I1
sS'cacheFilePrefix'
p198
S'.happydoc.'
p199
sS'useCache'
p200
I1
sS'docStringFormat'
p201
S'StructuredText'
p202
ssg34
g5
sg35
g172
sg36
S''
sbt.