(S'7ffddb3e8628aa010f4fa623cffc563a'
p1
(ihappydoclib.parseinfo.moduleinfo
ModuleInfo
p2
(dp3
S'_namespaces'
p4
((dp5
S'ConnectivityMatch'
p6
(ihappydoclib.parseinfo.classinfo
ClassInfo
p7
(dp8
g4
((dp9
(dp10
S'__eq__'
p11
(ihappydoclib.parseinfo.functioninfo
FunctionInfo
p12
(dp13
g4
((dp14
(dp15
tp16
sS'_exception_info'
p17
(dp18
sS'_parameter_names'
p19
(S'self'
p20
S'atom'
p21
tp22
sS'_parameter_info'
p23
(dp24
g20
(NNNtp25
sg21
(NNNtp26
ssS'_filename'
p27
S'../python/frowns/Smarts/Primitives.py'
p28
sS'_docstring'
p29
S''
sS'_name'
p30
g11
sS'_parent'
p31
g7
sS'_comment_info'
p32
(dp33
(S'RingSizeMatch'
tp34
S" XXX FIX ME\n I don't understand this one too well.  The description says\n atom in smallest SSSR ring of size <n>\n although that is a bit ambiguous isn't it?\n let's just say for now that the atom is in a ring of\n size n and leave it at that...\n"
p35
s(S'RecursiveMatcher'
tp36
S' \n The recursive matcher is not implemented at this\n point.  I probably will need to modified the\n graph searcher a little bit to anchor the search\n at the starting atom of the recursion\n'
p37
s(S'ChiralClassMatch'
tp38
S" \n We don't support chirality yet\n This will be kind of bizzare...\n we will do a small internal match inside\n of this object\n"
p39
ssS'_configuration_values'
p40
(dp41
sS'_class_info'
p42
g14
sS'_function_info'
p43
g15
sS'_comments'
p44
S''
sbstp45
sg27
g28
sg29
S''
sS'_class_member_info'
p46
(lp47
S'property'
p48
asg30
g6
sg31
g2
sg32
g33
sS'_base_class_info'
p49
(lp50
S'PropertyMatch'
p51
asg40
(dp52
sg42
g9
sg43
g10
sg44
S''
sbsS'BooleanRingMembershipMatch'
p53
(ihappydoclib.parseinfo.classinfo
ClassInfo
p54
(dp55
g4
((dp56
(dp57
S'__str__'
p58
(ihappydoclib.parseinfo.functioninfo
FunctionInfo
p59
(dp60
g4
((dp61
(dp62
tp63
sg17
(dp64
sg19
(S'self'
p65
tp66
sg23
(dp67
g65
(NNNtp68
ssg27
g28
sg29
S''
sg30
g58
sg31
g54
sg32
g33
sg40
(dp69
sg42
g61
sg43
g62
sg44
S''
sbsS'__eq__'
p70
(ihappydoclib.parseinfo.functioninfo
FunctionInfo
p71
(dp72
g4
((dp73
(dp74
tp75
sg17
(dp76
sg19
(S'self'
p77
S'atom'
p78
tp79
sg23
(dp80
g77
(NNNtp81
sg78
(NNNtp82
ssg27
g28
sg29
S''
sg30
g70
sg31
g54
sg32
g33
sg40
(dp83
sg42
g73
sg43
g74
sg44
S''
sbstp84
sg27
g28
sg29
S''
sg46
(lp85
sg30
g53
sg31
g2
sg32
g33
sg49
(lp86
S'BooleanMatch'
p87
asg40
(dp88
sg42
g56
sg43
g57
sg44
S''
sbsS'RingMembershipMatch'
p89
(ihappydoclib.parseinfo.classinfo
ClassInfo
p90
(dp91
g4
((dp92
(dp93
S'__str__'
p94
(ihappydoclib.parseinfo.functioninfo
FunctionInfo
p95
(dp96
g4
((dp97
(dp98
tp99
sg17
(dp100
sg19
(S'self'
p101
tp102
sg23
(dp103
g101
(NNNtp104
ssg27
g28
sg29
S''
sg30
g94
sg31
g90
sg32
g33
sg40
(dp105
sg42
g97
sg43
g98
sg44
S''
sbsS'__eq__'
p106
(ihappydoclib.parseinfo.functioninfo
FunctionInfo
p107
(dp108
g4
((dp109
(dp110
tp111
sg17
(dp112
sg19
(S'self'
p113
S'atom'
p114
tp115
sg23
(dp116
g113
(NNNtp117
sg114
(NNNtp118
ssg27
g28
sg29
S''
sg30
g106
sg31
g90
sg32
g33
sg40
(dp119
sg42
g109
sg43
g110
sg44
S''
sbstp120
sg27
g28
sg29
S''
sg46
(lp121
sg30
g89
sg31
g2
sg32
g33
sg49
(lp122
S'PropertyMatch'
p123
asg40
(dp124
sg42
g92
sg43
g93
sg44
S''
sbsS'PropertyMatch'
p125
(ihappydoclib.parseinfo.classinfo
ClassInfo
p126
(dp127
g4
((dp128
(dp129
S'__str__'
p130
(ihappydoclib.parseinfo.functioninfo
FunctionInfo
p131
(dp132
g4
((dp133
(dp134
tp135
sg17
(dp136
sg19
(S'self'
p137
tp138
sg23
(dp139
g137
(NNNtp140
ssg27
g28
sg29
S''
sg30
g130
sg31
g126
sg32
g33
sg40
(dp141
sg42
g133
sg43
g134
sg44
S''
sbsS'__eq__'
p142
(ihappydoclib.parseinfo.functioninfo
FunctionInfo
p143
(dp144
g4
((dp145
(dp146
tp147
sg17
(dp148
sg19
(S'self'
p149
S'atom'
p150
tp151
sg23
(dp152
g149
(NNNtp153
sg150
(NNNtp154
ssg27
g28
sg29
S''
sg30
g142
sg31
g126
sg32
g33
sg40
(dp155
sg42
g145
sg43
g146
sg44
S''
sbsS'__init__'
p156
(ihappydoclib.parseinfo.functioninfo
FunctionInfo
p157
(dp158
g4
((dp159
(dp160
tp161
sg17
(dp162
sg19
(S'self'
p163
S'value'
p164
tp165
sg23
(dp166
g163
(NNNtp167
sg164
(NNNtp168
ssg27
g28
sg29
S''
sg30
g156
sg31
g126
sg32
g33
sg40
(dp169
sg42
g159
sg43
g160
sg44
S''
sbstp170
sg27
g28
sg29
S'Matches a named property of an object exactly'
p171
sg46
(lp172
S'property'
p173
asg30
g125
sg31
g2
sg32
g33
sg49
(lp174
sg40
(dp175
sg42
g128
sg43
g129
sg44
S''
sbsS'ImplicitHMatch'
p176
(ihappydoclib.parseinfo.classinfo
ClassInfo
p177
(dp178
g4
((dp179
(dp180
tp181
sg27
g28
sg29
S''
sg46
(lp182
S'property'
p183
asg30
g176
sg31
g2
sg32
g33
sg49
(lp184
S'PropertyMatch'
p185
asg40
(dp186
sg42
g179
sg43
g180
sg44
S''
sbsS'SymbolMatch'
p187
(ihappydoclib.parseinfo.classinfo
ClassInfo
p188
(dp189
g4
((dp190
(dp191
S'__eq__'
p192
(ihappydoclib.parseinfo.functioninfo
FunctionInfo
p193
(dp194
g4
((dp195
(dp196
tp197
sg17
(dp198
sg19
(S'self'
p199
S'atom'
p200
tp201
sg23
(dp202
g199
(NNNtp203
sg200
(NNNtp204
ssg27
g28
sg29
S''
sg30
g192
sg31
g188
sg32
g33
sg40
(dp205
sg42
g195
sg43
g196
sg44
S''
sbstp206
sg27
g28
sg29
S''
sg46
(lp207
S'property'
p208
asg30
g187
sg31
g2
sg32
g33
sg49
(lp209
S'PropertyMatch'
p210
asg40
(dp211
sg42
g190
sg43
g191
sg44
S''
sbsS'ChargeMatch'
p212
(ihappydoclib.parseinfo.classinfo
ClassInfo
p213
(dp214
g4
((dp215
(dp216
tp217
sg27
g28
sg29
S''
sg46
(lp218
S'property'
p219
asg30
g212
sg31
g2
sg32
g33
sg49
(lp220
S'PropertyMatch'
p221
asg40
(dp222
sg42
g215
sg43
g216
sg44
S''
sbsS'AtomicNumberMatch'
p223
(ihappydoclib.parseinfo.classinfo
ClassInfo
p224
(dp225
g4
((dp226
(dp227
tp228
sg27
g28
sg29
S''
sg46
(lp229
S'property'
p230
asg30
g223
sg31
g2
sg32
g33
sg49
(lp231
S'PropertyMatch'
p232
asg40
(dp233
sg42
g226
sg43
g227
sg44
S''
sbsS'WeightMatch'
p234
(ihappydoclib.parseinfo.classinfo
ClassInfo
p235
(dp236
g4
((dp237
(dp238
tp239
sg27
g28
sg29
S''
sg46
(lp240
S'property'
p241
asg30
g234
sg31
g2
sg32
g33
sg49
(lp242
S'PropertyMatch'
p243
asg40
(dp244
sg42
g237
sg43
g238
sg44
S''
sbsS'RingSizeMatch'
p245
(ihappydoclib.parseinfo.classinfo
ClassInfo
p246
(dp247
g4
((dp248
(dp249
S'__eq__'
p250
(ihappydoclib.parseinfo.functioninfo
FunctionInfo
p251
(dp252
g4
((dp253
(dp254
tp255
sg17
(dp256
sg19
(S'self'
p257
S'atom'
p258
tp259
sg23
(dp260
g257
(NNNtp261
sg258
(NNNtp262
ssg27
g28
sg29
S''
sg30
g250
sg31
g246
sg32
g33
sg40
(dp263
sg42
g253
sg43
g254
sg44
S''
sbstp264
sg27
g28
sg29
S''
sg46
(lp265
sg30
g245
sg31
g2
sg32
g33
sg49
(lp266
S'PropertyMatch'
p267
asg40
(dp268
sg42
g248
sg43
g249
sg44
g35
sbsS'RecursiveMatcher'
p269
(ihappydoclib.parseinfo.classinfo
ClassInfo
p270
(dp271
g4
((dp272
(dp273
S'__str__'
p274
(ihappydoclib.parseinfo.functioninfo
FunctionInfo
p275
(dp276
g4
((dp277
(dp278
tp279
sg17
(dp280
sg19
(S'self'
p281
tp282
sg23
(dp283
g281
(NNNtp284
ssg27
g28
sg29
S''
sg30
g274
sg31
g270
sg32
g33
sg40
(dp285
sg42
g277
sg43
g278
sg44
S''
sbsS'__eq__'
p286
(ihappydoclib.parseinfo.functioninfo
FunctionInfo
p287
(dp288
g4
((dp289
(dp290
tp291
sg17
(dp292
S'NotImplementedError'
p293
Nssg19
(S'self'
p294
S'atom'
p295
tp296
sg23
(dp297
g294
(NNNtp298
sg295
(NNNtp299
ssg27
g28
sg29
S''
sg30
g286
sg31
g270
sg32
g33
sg40
(dp300
sg42
g289
sg43
g290
sg44
S''
sbsS'__init__'
p301
(ihappydoclib.parseinfo.functioninfo
FunctionInfo
p302
(dp303
g4
((dp304
(dp305
tp306
sg17
(dp307
sg19
(S'self'
p308
S'mol'
p309
tp310
sg23
(dp311
g308
(NNNtp312
sg309
(NNNtp313
ssg27
g28
sg29
S''
sg30
g301
sg31
g270
sg32
g33
sg40
(dp314
sg42
g304
sg43
g305
sg44
S''
sbstp315
sg27
g28
sg29
S''
sg46
(lp316
sg30
g269
sg31
g2
sg32
g33
sg49
(lp317
sg40
(dp318
sg42
g272
sg43
g273
sg44
g37
sbsS'ChiralClassMatch'
p319
(ihappydoclib.parseinfo.classinfo
ClassInfo
p320
(dp321
g4
((dp322
(dp323
tp324
sg27
g28
sg29
S''
sg46
(lp325
S'property'
p326
asg30
g319
sg31
g2
sg32
g33
sg49
(lp327
S'PropertyMatch'
p328
asg40
(dp329
sg42
g322
sg43
g323
sg44
g39
sbsS'AnyRingBond'
p330
(ihappydoclib.parseinfo.classinfo
ClassInfo
p331
(dp332
g4
((dp333
(dp334
S'__eq__'
p335
(ihappydoclib.parseinfo.functioninfo
FunctionInfo
p336
(dp337
g4
((dp338
(dp339
tp340
sg17
(dp341
sg19
(S'self'
p342
S'bond'
p343
tp344
sg23
(dp345
g342
(NNNtp346
sg343
(NNNtp347
ssg27
g28
sg29
S''
sg30
g335
sg31
g331
sg32
g33
sg40
(dp348
sg42
g338
sg43
g339
sg44
S''
sbstp349
sg27
g28
sg29
S''
sg46
(lp350
S'property'
p351
asg30
g330
sg31
g2
sg32
g33
sg49
(lp352
S'PropertyMatch'
p353
asg40
(dp354
sg42
g333
sg43
g334
sg44
S''
sbsS'BooleanMatch'
p355
(ihappydoclib.parseinfo.classinfo
ClassInfo
p356
(dp357
g4
((dp358
(dp359
S'__str__'
p360
(ihappydoclib.parseinfo.functioninfo
FunctionInfo
p361
(dp362
g4
((dp363
(dp364
tp365
sg17
(dp366
sg19
(S'self'
p367
tp368
sg23
(dp369
g367
(NNNtp370
ssg27
g28
sg29
S''
sg30
g360
sg31
g356
sg32
g33
sg40
(dp371
sg42
g363
sg43
g364
sg44
S''
sbsS'__init__'
p372
(ihappydoclib.parseinfo.functioninfo
FunctionInfo
p373
(dp374
g4
((dp375
(dp376
tp377
sg17
(dp378
sg19
(S'self'
p379
S'value'
p380
tp381
sg23
(dp382
g379
(NNNtp383
sg380
(I1
S'1'
Ntp384
ssg27
g28
sg29
S''
sg30
g372
sg31
g356
sg32
g33
sg40
(dp385
sg42
g375
sg43
g376
sg44
S''
sbstp386
sg27
g28
sg29
S''
sg46
(lp387
sg30
g355
sg31
g2
sg32
g33
sg49
(lp388
S'PropertyMatch'
p389
asg40
(dp390
sg42
g358
sg43
g359
sg44
S''
sbsS'AromaticMatch'
p391
(ihappydoclib.parseinfo.classinfo
ClassInfo
p392
(dp393
g4
((dp394
(dp395
tp396
sg27
g28
sg29
S''
sg46
(lp397
S'property'
p398
asg30
g391
sg31
g2
sg32
g33
sg49
(lp399
S'PropertyMatch'
p400
asg40
(dp401
sg42
g394
sg43
g395
sg44
S''
sbsS'TotalHMatch'
p402
(ihappydoclib.parseinfo.classinfo
ClassInfo
p403
(dp404
g4
((dp405
(dp406
tp407
sg27
g28
sg29
S''
sg46
(lp408
S'property'
p409
asg30
g402
sg31
g2
sg32
g33
sg49
(lp410
S'PropertyMatch'
p411
asg40
(dp412
sg42
g405
sg43
g406
sg44
S''
sbsS'AnyBond'
p413
(ihappydoclib.parseinfo.classinfo
ClassInfo
p414
(dp415
g4
((dp416
(dp417
S'__eq__'
p418
(ihappydoclib.parseinfo.functioninfo
FunctionInfo
p419
(dp420
g4
((dp421
(dp422
tp423
sg17
(dp424
sg19
(S'self'
p425
S'bond'
p426
tp427
sg23
(dp428
g425
(NNNtp429
sg426
(NNNtp430
ssg27
g28
sg29
S''
sg30
g418
sg31
g414
sg32
g33
sg40
(dp431
sg42
g421
sg43
g422
sg44
S''
sbstp432
sg27
g28
sg29
S''
sg46
(lp433
S'property'
p434
asg30
g413
sg31
g2
sg32
g33
sg49
(lp435
S'PropertyMatch'
p436
asg40
(dp437
sg42
g416
sg43
g417
sg44
S''
sbsS'ValenceMatch'
p438
(ihappydoclib.parseinfo.classinfo
ClassInfo
p439
(dp440
g4
((dp441
(dp442
S'__eq__'
p443
(ihappydoclib.parseinfo.functioninfo
FunctionInfo
p444
(dp445
g4
((dp446
(dp447
tp448
sg17
(dp449
sg19
(S'self'
p450
S'atom'
p451
tp452
sg23
(dp453
g450
(NNNtp454
sg451
(NNNtp455
ssg27
g28
sg29
S''
sg30
g443
sg31
g439
sg32
g33
sg40
(dp456
sg42
g446
sg43
g447
sg44
S''
sbstp457
sg27
g28
sg29
S''
sg46
(lp458
S'property'
p459
asg30
g438
sg31
g2
sg32
g33
sg49
(lp460
S'PropertyMatch'
p461
asg40
(dp462
sg42
g441
sg43
g442
sg44
S''
sbsS'UnspecifiedBondMatch'
p463
(ihappydoclib.parseinfo.classinfo
ClassInfo
p464
(dp465
g4
((dp466
(dp467
S'__eq__'
p468
(ihappydoclib.parseinfo.functioninfo
FunctionInfo
p469
(dp470
g4
((dp471
(dp472
tp473
sg17
(dp474
sg19
(S'self'
p475
S'bond'
p476
tp477
sg23
(dp478
g475
(NNNtp479
sg476
(NNNtp480
ssg27
g28
sg29
S''
sg30
g468
sg31
g464
sg32
g33
sg40
(dp481
sg42
g471
sg43
g472
sg44
S''
sbsS'__init__'
p482
(ihappydoclib.parseinfo.functioninfo
FunctionInfo
p483
(dp484
g4
((dp485
(dp486
tp487
sg17
(dp488
sg19
(S'self'
p489
tp490
sg23
(dp491
g489
(NNNtp492
ssg27
g28
sg29
S''
sg30
g482
sg31
g464
sg32
g33
sg40
(dp493
sg42
g485
sg43
g486
sg44
S''
sbstp494
sg27
g28
sg29
S''
sg46
(lp495
sg30
g463
sg31
g2
sg32
g33
sg49
(lp496
S'PropertyMatch'
p497
asg40
(dp498
sg42
g466
sg43
g467
sg44
S''
sbsS'ChiralCountMatch'
p499
(ihappydoclib.parseinfo.classinfo
ClassInfo
p500
(dp501
g4
((dp502
(dp503
tp504
sg27
g28
sg29
S''
sg46
(lp505
S'property'
p506
asg30
g499
sg31
g2
sg32
g33
sg49
(lp507
S'PropertyMatch'
p508
asg40
(dp509
sg42
g502
sg43
g503
sg44
S''
sbsS'BondSymbolMatch'
p510
(ihappydoclib.parseinfo.classinfo
ClassInfo
p511
(dp512
g4
((dp513
(dp514
tp515
sg27
g28
sg29
S''
sg46
(lp516
S'property'
p517
asg30
g510
sg31
g2
sg32
g33
sg49
(lp518
S'PropertyMatch'
p519
asg40
(dp520
sg42
g513
sg43
g514
sg44
S''
sbsS'DegreeMatch'
p521
(ihappydoclib.parseinfo.classinfo
ClassInfo
p522
(dp523
g4
((dp524
(dp525
S'__eq__'
p526
(ihappydoclib.parseinfo.functioninfo
FunctionInfo
p527
(dp528
g4
((dp529
(dp530
tp531
sg17
(dp532
sg19
(S'self'
p533
S'atom'
p534
tp535
sg23
(dp536
g533
(NNNtp537
sg534
(NNNtp538
ssg27
g28
sg29
S''
sg30
g526
sg31
g522
sg32
g33
sg40
(dp539
sg42
g529
sg43
g530
sg44
S''
sbstp540
sg27
g28
sg29
S''
sg46
(lp541
sg30
g521
sg31
g2
sg32
g33
sg49
(lp542
S'PropertyMatch'
p543
asg40
(dp544
sg42
g524
sg43
g525
sg44
S''
sbs(dp545
tp546
sS'_import_info'
p547
(ihappydoclib.parseinfo.imports
ImportInfo
p548
(dp549
S'_named_imports'
p550
(dp551
sS'_straight_imports'
p552
(lp553
S'string'
p554
asbsg27
g28
sg29
S'"""\nSMARTS Primitives taken from daylight\'s web site\nhttp://www.daylight.com\n\nSMARTS Atomic primitives\n\nSymbol   Symbol name            Atomic property            Default\n                                requirements\n======   ===========            ============               ===========                                \n*        wildcard               any atom                   (no default) \na        aromatic               aromatic                   (no default) \nA        aliphatic              aliphatic                  (no default) \nD<n>     degree                 <n> explicit connections   (no default) \nH<n>     total-H-count          <n> attached hydrogens     exactly one \nh<n>     implicit-H-count       <n> implicit hydrogens     exactly one \nR<n>     ring membership in     <n> SSSR rings             any ring atom \nr<n>     ring size              in smallest SSSR ring      any ring atom \n                                of size <n>   \nv<n>     valence                total bond order <n>       (no default) \nX<n>     connectivity <n>       total connections          (no default) \n-<n>     negative charge -<n>   charge                     -1 charge (-- is -2, etc) \n+<n>     positive charge +<n>   formal charge              +1 charge (++ is +2, etc) \n#n       atomic number          atomic number <n>          (no default) \n@        chirality              anticlockwise              anticlockwise, default class \n@@       chirality              clockwise                  clockwise, default class \n@<c><n>  chirality              chiral class <c>           chirality <n> (nodefault) \n@<c><n>? chiral or              <c><n> orunspecified       (no default) \n         unspec chirality \n<n>      atomic mass            explicit atomic mass       unspecified mass\n\nSMARTS Bond Primitives\nSymbol   Atomic property           requirements \n======   ===============           ============\n-        single bond               (aliphatic) \n/        directional single bond   "up" \n\\        directional single bond   "down" \n/?       directional bond          "up or unspecified" \n\\?       directional bond          "down or unspecified" \n=        double bond \n#        triple bond \n:        aromatic bond \n~        any bond (wildcard) \n@        any ring bond\n"""'
p555
sg30
S'Primitives'
p556
sg31
Nsg32
g33
sg40
(dp557
S'include_comments'
p558
I1
sS'cacheFilePrefix'
p559
S'.happydoc.'
p560
sS'useCache'
p561
I1
sS'docStringFormat'
p562
S'StructuredText'
p563
ssg42
g5
sg43
g545
sg44
S''
sbt.