(S'5a5ff46a39cefdb06b759709ff2e171c'
p1
(ihappydoclib.parseinfo.moduleinfo
ModuleInfo
p2
(dp3
S'_namespaces'
p4
((dp5
S'BuildMatcher'
p6
(ihappydoclib.parseinfo.classinfo
ClassInfo
p7
(dp8
g4
((dp9
(dp10
S'do_ring_membership'
p11
(ihappydoclib.parseinfo.functioninfo
FunctionInfo
p12
(dp13
g4
((dp14
(dp15
tp16
sS'_exception_info'
p17
(dp18
sS'_parameter_names'
p19
(S'self'
p20
S'text'
p21
tp22
sS'_parameter_info'
p23
(dp24
g21
(NNNtp25
sg20
(NNNtp26
ssS'_filename'
p27
S'../python/frowns/Smarts/Compiler.py'
p28
sS'_docstring'
p29
S''
sS'_name'
p30
g11
sS'_parent'
p31
g7
sS'_comment_info'
p32
(dp33
sS'_configuration_values'
p34
(dp35
sS'_class_info'
p36
g14
sS'_function_info'
p37
g15
sS'_comments'
p38
S''
sbsS'_verify'
p39
(ihappydoclib.parseinfo.functioninfo
FunctionInfo
p40
(dp41
g4
((dp42
(dp43
tp44
sg17
(dp45
S'AssertionError( "Missing an atom expression after the bond" )'
p46
NsS'AssertionError("Missing closures for %s" %( self.closures.keys(), ) )'
p47
NsS'AssertionError( "Missing \')\'" )'
p48
Nssg19
(S'self'
p49
tp50
sg23
(dp51
g49
(NNNtp52
ssg27
g28
sg29
S''
sg30
g39
sg31
g7
sg32
g33
sg34
(dp53
sg36
g42
sg37
g43
sg38
S''
sbsS'do_weight'
p54
(ihappydoclib.parseinfo.functioninfo
FunctionInfo
p55
(dp56
g4
((dp57
(dp58
tp59
sg17
(dp60
sg19
(S'self'
p61
S'text'
p62
tp63
sg23
(dp64
g62
(NNNtp65
sg61
(NNNtp66
ssg27
g28
sg29
S''
sg30
g54
sg31
g7
sg32
g33
sg34
(dp67
sg36
g57
sg37
g58
sg38
S''
sbsS'do_ring_size'
p68
(ihappydoclib.parseinfo.functioninfo
FunctionInfo
p69
(dp70
g4
((dp71
(dp72
tp73
sg17
(dp74
sg19
(S'self'
p75
S'text'
p76
tp77
sg23
(dp78
g76
(NNNtp79
sg75
(NNNtp80
ssg27
g28
sg29
S''
sg30
g68
sg31
g7
sg32
g33
sg34
(dp81
sg36
g71
sg37
g72
sg38
S''
sbsS'do_aromatic'
p82
(ihappydoclib.parseinfo.functioninfo
FunctionInfo
p83
(dp84
g4
((dp85
(dp86
tp87
sg17
(dp88
sg19
(S'self'
p89
S'text'
p90
tp91
sg23
(dp92
g90
(NNNtp93
sg89
(NNNtp94
ssg27
g28
sg29
S''
sg30
g82
sg31
g7
sg32
g33
sg34
(dp95
sg36
g85
sg37
g86
sg38
S''
sbsS'do_raw_h_unknown'
p96
(ihappydoclib.parseinfo.functioninfo
FunctionInfo
p97
(dp98
g4
((dp99
(dp100
tp101
sg17
(dp102
sg19
(S'self'
p103
S'text'
p104
tp105
sg23
(dp106
g104
(NNNtp107
sg103
(NNNtp108
ssg27
g28
sg29
S''
sg30
g96
sg31
g7
sg32
g33
sg34
(dp109
sg36
g99
sg37
g100
sg38
S''
sbsS'do_total_hcount'
p110
(ihappydoclib.parseinfo.functioninfo
FunctionInfo
p111
(dp112
g4
((dp113
(dp114
tp115
sg17
(dp116
sg19
(S'self'
p117
S'text'
p118
tp119
sg23
(dp120
g118
(NNNtp121
sg117
(NNNtp122
ssg27
g28
sg29
S''
sg30
g110
sg31
g7
sg32
g33
sg34
(dp123
sg36
g113
sg37
g114
sg38
S''
sbsS'do_raw_i_unknown'
p124
(ihappydoclib.parseinfo.functioninfo
FunctionInfo
p125
(dp126
g4
((dp127
(dp128
tp129
sg17
(dp130
sg19
(S'self'
p131
S'text'
p132
tp133
sg23
(dp134
g132
(NNNtp135
sg131
(NNNtp136
ssg27
g28
sg29
S''
sg30
g124
sg31
g7
sg32
g33
sg34
(dp137
sg36
g127
sg37
g128
sg38
S''
sbsS'do_open_recursive_smarts'
p138
(ihappydoclib.parseinfo.functioninfo
FunctionInfo
p139
(dp140
g4
((dp141
(dp142
tp143
sg17
(dp144
sg19
(S'self'
p145
S'text'
p146
tp147
sg23
(dp148
g146
(NNNtp149
sg145
(NNNtp150
ssg27
g28
sg29
S''
sg30
g138
sg31
g7
sg32
g33
sg34
(dp151
sg36
g141
sg37
g142
sg38
S''
sbsS'do_positive_count'
p152
(ihappydoclib.parseinfo.functioninfo
FunctionInfo
p153
(dp154
g4
((dp155
(dp156
tp157
sg17
(dp158
sg19
(S'self'
p159
S'text'
p160
tp161
sg23
(dp162
g160
(NNNtp163
sg159
(NNNtp164
ssg27
g28
sg29
S''
sg30
g152
sg31
g7
sg32
g33
sg34
(dp165
sg36
g155
sg37
g156
sg38
S''
sbsS'end'
p166
(ihappydoclib.parseinfo.functioninfo
FunctionInfo
p167
(dp168
g4
((dp169
(dp170
tp171
sg17
(dp172
S'AssertionError( "Inside of a recursive SMARTS" )'
p173
Nssg19
(S'self'
p174
tp175
sg23
(dp176
g174
(NNNtp177
ssg27
g28
sg29
S''
sg30
g166
sg31
g7
sg32
g33
sg34
(dp178
sg36
g169
sg37
g170
sg38
S''
sbsS'do_dot'
p179
(ihappydoclib.parseinfo.functioninfo
FunctionInfo
p180
(dp181
g4
((dp182
(dp183
tp184
sg17
(dp185
sg19
(S'self'
p186
S'text'
p187
tp188
sg23
(dp189
g187
(NNNtp190
sg186
(NNNtp191
ssg27
g28
sg29
S''
sg30
g179
sg31
g7
sg32
g33
sg34
(dp192
sg36
g182
sg37
g183
sg38
S''
sbsS'do_degree'
p193
(ihappydoclib.parseinfo.functioninfo
FunctionInfo
p194
(dp195
g4
((dp196
(dp197
tp198
sg17
(dp199
sg19
(S'self'
p200
S'text'
p201
tp202
sg23
(dp203
g201
(NNNtp204
sg200
(NNNtp205
ssg27
g28
sg29
S''
sg30
g193
sg31
g7
sg32
g33
sg34
(dp206
sg36
g196
sg37
g197
sg38
S''
sbsS'do_raw_r_unknown'
p207
(ihappydoclib.parseinfo.functioninfo
FunctionInfo
p208
(dp209
g4
((dp210
(dp211
tp212
sg17
(dp213
sg19
(S'self'
p214
S'text'
p215
tp216
sg23
(dp217
g215
(NNNtp218
sg214
(NNNtp219
ssg27
g28
sg29
S''
sg30
g207
sg31
g7
sg32
g33
sg34
(dp220
sg36
g210
sg37
g211
sg38
S''
sbsS'do_open_zero'
p221
(ihappydoclib.parseinfo.functioninfo
FunctionInfo
p222
(dp223
g4
((dp224
(dp225
tp226
sg17
(dp227
sg19
(S'self'
p228
S'text'
p229
tp230
sg23
(dp231
g229
(NNNtp232
sg228
(NNNtp233
ssg27
g28
sg29
S''
sg30
g221
sg31
g7
sg32
g33
sg34
(dp234
sg36
g224
sg37
g225
sg38
S''
sbsS'add_token'
p235
(ihappydoclib.parseinfo.functioninfo
FunctionInfo
p236
(dp237
g4
((dp238
(dp239
tp240
sg17
(dp241
sg19
(S'self'
p242
S'field'
p243
S'pos'
p244
S'text'
p245
tp246
sg23
(dp247
g243
(NNNtp248
sg242
(NNNtp249
sg244
(NNNtp250
sg245
(NNNtp251
ssg27
g28
sg29
S''
sg30
g235
sg31
g7
sg32
g33
sg34
(dp252
sg36
g238
sg37
g239
sg38
S''
sbsS'do_raw_b_unknown'
p253
(ihappydoclib.parseinfo.functioninfo
FunctionInfo
p254
(dp255
g4
((dp256
(dp257
tp258
sg17
(dp259
sg19
(S'self'
p260
S'text'
p261
tp262
sg23
(dp263
g261
(NNNtp264
sg260
(NNNtp265
ssg27
g28
sg29
S''
sg30
g253
sg31
g7
sg32
g33
sg34
(dp266
sg36
g256
sg37
g257
sg38
S''
sbsS'do_atom_binary'
p267
(ihappydoclib.parseinfo.functioninfo
FunctionInfo
p268
(dp269
g4
((dp270
(dp271
tp272
sg17
(dp273
sg19
(S'self'
p274
S'text'
p275
tp276
sg23
(dp277
g275
(NNNtp278
sg274
(NNNtp279
ssg27
g28
sg29
S''
sg30
g267
sg31
g7
sg32
g33
sg34
(dp280
sg36
g270
sg37
g271
sg38
S''
sbsS'do_raw_aliphatic'
p281
(ihappydoclib.parseinfo.functioninfo
FunctionInfo
p282
(dp283
g4
((dp284
(dp285
tp286
sg17
(dp287
sg19
(S'self'
p288
S'text'
p289
tp290
sg23
(dp291
g289
(NNNtp292
sg288
(NNNtp293
ssg27
g28
sg29
S''
sg30
g281
sg31
g7
sg32
g33
sg34
(dp294
sg36
g284
sg37
g285
sg38
S''
sbsS'do_negative_count'
p295
(ihappydoclib.parseinfo.functioninfo
FunctionInfo
p296
(dp297
g4
((dp298
(dp299
tp300
sg17
(dp301
sg19
(S'self'
p302
S'text'
p303
tp304
sg23
(dp305
g303
(NNNtp306
sg302
(NNNtp307
ssg27
g28
sg29
S''
sg30
g295
sg31
g7
sg32
g33
sg34
(dp308
sg36
g298
sg37
g299
sg38
S''
sbsS'do_bond_binary'
p309
(ihappydoclib.parseinfo.functioninfo
FunctionInfo
p310
(dp311
g4
((dp312
(dp313
tp314
sg17
(dp315
sg19
(S'self'
p316
S'text'
p317
tp318
sg23
(dp319
g317
(NNNtp320
sg316
(NNNtp321
ssg27
g28
sg29
S''
sg30
g309
sg31
g7
sg32
g33
sg34
(dp322
sg36
g312
sg37
g313
sg38
S''
sbsS'begin'
p323
(ihappydoclib.parseinfo.functioninfo
FunctionInfo
p324
(dp325
g4
((dp326
(dp327
tp328
sg17
(dp329
sg19
(S'self'
p330
tp331
sg23
(dp332
g330
(NNNtp333
ssg27
g28
sg29
S''
sg30
g323
sg31
g7
sg32
g33
sg34
(dp334
sg36
g326
sg37
g327
sg38
S''
sbsS'do_closure'
p335
(ihappydoclib.parseinfo.functioninfo
FunctionInfo
p336
(dp337
g4
((dp338
(dp339
tp340
sg17
(dp341
S'NotImplementedError( "Need to check if they match" )'
p342
NsS'AssertionError( "cannot close a ring with itself" )'
p343
Nssg19
(S'self'
p344
S'text'
p345
tp346
sg23
(dp347
g345
(NNNtp348
sg344
(NNNtp349
ssg27
g28
sg29
S''
sg30
g335
sg31
g7
sg32
g33
sg34
(dp350
sg36
g338
sg37
g339
sg38
S''
sbsS'do_raw_f_unknown'
p351
(ihappydoclib.parseinfo.functioninfo
FunctionInfo
p352
(dp353
g4
((dp354
(dp355
tp356
sg17
(dp357
sg19
(S'self'
p358
S'text'
p359
tp360
sg23
(dp361
g359
(NNNtp362
sg358
(NNNtp363
ssg27
g28
sg29
S''
sg30
g351
sg31
g7
sg32
g33
sg34
(dp364
sg36
g354
sg37
g355
sg38
S''
sbsS'do_close_branch'
p365
(ihappydoclib.parseinfo.functioninfo
FunctionInfo
p366
(dp367
g4
((dp368
(dp369
tp370
sg17
(dp371
sg19
(S'self'
p372
S'text'
p373
tp374
sg23
(dp375
g373
(NNNtp376
sg372
(NNNtp377
ssg27
g28
sg29
S''
sg30
g365
sg31
g7
sg32
g33
sg34
(dp378
sg36
g368
sg37
g369
sg38
S''
sbsS'do_chiral_count'
p379
(ihappydoclib.parseinfo.functioninfo
FunctionInfo
p380
(dp381
g4
((dp382
(dp383
tp384
sg17
(dp385
sg19
(S'self'
p386
S'text'
p387
tp388
sg23
(dp389
g387
(NNNtp390
sg386
(NNNtp391
ssg27
g28
sg29
S''
sg30
g379
sg31
g7
sg32
g33
sg34
(dp392
sg36
g382
sg37
g383
sg38
S''
sbsS'do_atomic_number'
p393
(ihappydoclib.parseinfo.functioninfo
FunctionInfo
p394
(dp395
g4
((dp396
(dp397
tp398
sg17
(dp399
sg19
(S'self'
p400
S'text'
p401
tp402
sg23
(dp403
g401
(NNNtp404
sg400
(NNNtp405
ssg27
g28
sg29
S''
sg30
g393
sg31
g7
sg32
g33
sg34
(dp406
sg36
g396
sg37
g397
sg38
S''
sbsS'do_raw_R_unknown'
p407
(ihappydoclib.parseinfo.functioninfo
FunctionInfo
p408
(dp409
g4
((dp410
(dp411
tp412
sg17
(dp413
sg19
(S'self'
p414
S'text'
p415
tp416
sg23
(dp417
g415
(NNNtp418
sg414
(NNNtp419
ssg27
g28
sg29
S''
sg30
g407
sg31
g7
sg32
g33
sg34
(dp420
sg36
g410
sg37
g411
sg38
S''
sbsS'do_aliphatic'
p421
(ihappydoclib.parseinfo.functioninfo
FunctionInfo
p422
(dp423
g4
((dp424
(dp425
tp426
sg17
(dp427
sg19
(S'self'
p428
S'text'
p429
tp430
sg23
(dp431
g429
(NNNtp432
sg428
(NNNtp433
ssg27
g28
sg29
S''
sg30
g421
sg31
g7
sg32
g33
sg34
(dp434
sg36
g424
sg37
g425
sg38
S''
sbsS'do_bond_not'
p435
(ihappydoclib.parseinfo.functioninfo
FunctionInfo
p436
(dp437
g4
((dp438
(dp439
tp440
sg17
(dp441
sg19
(S'self'
p442
S'text'
p443
tp444
sg23
(dp445
g443
(NNNtp446
sg442
(NNNtp447
ssg27
g28
sg29
S''
sg30
g435
sg31
g7
sg32
g33
sg34
(dp448
sg36
g438
sg37
g439
sg38
S''
sbsS'do_chiral_symbols'
p449
(ihappydoclib.parseinfo.functioninfo
FunctionInfo
p450
(dp451
g4
((dp452
(dp453
tp454
sg17
(dp455
sg19
(S'self'
p456
S'text'
p457
tp458
sg23
(dp459
g457
(NNNtp460
sg456
(NNNtp461
ssg27
g28
sg29
S''
sg30
g449
sg31
g7
sg32
g33
sg34
(dp462
sg36
g452
sg37
g453
sg38
S''
sbsS'do_chiral_named'
p463
(ihappydoclib.parseinfo.functioninfo
FunctionInfo
p464
(dp465
g4
((dp466
(dp467
tp468
sg17
(dp469
sg19
(S'self'
p470
S'text'
p471
tp472
sg23
(dp473
g471
(NNNtp474
sg470
(NNNtp475
ssg27
g28
sg29
S''
sg30
g463
sg31
g7
sg32
g33
sg34
(dp476
sg36
g466
sg37
g467
sg38
S''
sbsS'do_raw_atom'
p477
(ihappydoclib.parseinfo.functioninfo
FunctionInfo
p478
(dp479
g4
((dp480
(dp481
tp482
sg17
(dp483
sg19
(S'self'
p484
S'text'
p485
tp486
sg23
(dp487
g485
(NNNtp488
sg484
(NNNtp489
ssg27
g28
sg29
S''
sg30
g477
sg31
g7
sg32
g33
sg34
(dp490
sg36
g480
sg37
g481
sg38
S''
sbsS'do_element'
p491
(ihappydoclib.parseinfo.functioninfo
FunctionInfo
p492
(dp493
g4
((dp494
(dp495
tp496
sg17
(dp497
sg19
(S'self'
p498
S'text'
p499
tp500
sg23
(dp501
g499
(NNNtp502
sg498
(NNNtp503
ssg27
g28
sg29
S''
sg30
g491
sg31
g7
sg32
g33
sg34
(dp504
sg36
g494
sg37
g495
sg38
S''
sbsS'do_close_zero'
p505
(ihappydoclib.parseinfo.functioninfo
FunctionInfo
p506
(dp507
g4
((dp508
(dp509
tp510
sg17
(dp511
sg19
(S'self'
p512
S'text'
p513
tp514
sg23
(dp515
g513
(NNNtp516
sg512
(NNNtp517
ssg27
g28
sg29
S''
sg30
g505
sg31
g7
sg32
g33
sg34
(dp518
sg36
g508
sg37
g509
sg38
S''
sbsS'do_close_bracket'
p519
(ihappydoclib.parseinfo.functioninfo
FunctionInfo
p520
(dp521
g4
((dp522
(dp523
tp524
sg17
(dp525
sg19
(S'self'
p526
S'text'
p527
tp528
sg23
(dp529
g527
(NNNtp530
sg526
(NNNtp531
ssg27
g28
sg29
S''
sg30
g519
sg31
g7
sg32
g33
sg34
(dp532
sg36
g522
sg37
g523
sg38
S''
sbsS'do_atom_not'
p533
(ihappydoclib.parseinfo.functioninfo
FunctionInfo
p534
(dp535
g4
((dp536
(dp537
tp538
sg17
(dp539
sg19
(S'self'
p540
S'text'
p541
tp542
sg23
(dp543
g541
(NNNtp544
sg540
(NNNtp545
ssg27
g28
sg29
S''
sg30
g533
sg31
g7
sg32
g33
sg34
(dp546
sg36
g536
sg37
g537
sg38
S''
sbsS'do_open_bracket'
p547
(ihappydoclib.parseinfo.functioninfo
FunctionInfo
p548
(dp549
g4
((dp550
(dp551
tp552
sg17
(dp553
sg19
(S'self'
p554
S'text'
p555
tp556
sg23
(dp557
g555
(NNNtp558
sg554
(NNNtp559
ssg27
g28
sg29
S''
sg30
g547
sg31
g7
sg32
g33
sg34
(dp560
sg36
g550
sg37
g551
sg38
S''
sbsS'do_bond'
p561
(ihappydoclib.parseinfo.functioninfo
FunctionInfo
p562
(dp563
g4
((dp564
(dp565
tp566
sg17
(dp567
sg19
(S'self'
p568
S'text'
p569
tp570
sg23
(dp571
g569
(NNNtp572
sg568
(NNNtp573
ssg27
g28
sg29
S''
sg30
g561
sg31
g7
sg32
g33
sg34
(dp574
sg36
g564
sg37
g565
sg38
S''
sbsS'do_imp_hcount'
p575
(ihappydoclib.parseinfo.functioninfo
FunctionInfo
p576
(dp577
g4
((dp578
(dp579
tp580
sg17
(dp581
sg19
(S'self'
p582
S'text'
p583
tp584
sg23
(dp585
g583
(NNNtp586
sg582
(NNNtp587
ssg27
g28
sg29
S''
sg30
g575
sg31
g7
sg32
g33
sg34
(dp588
sg36
g578
sg37
g579
sg38
S''
sbsS'do_connectivity'
p589
(ihappydoclib.parseinfo.functioninfo
FunctionInfo
p590
(dp591
g4
((dp592
(dp593
tp594
sg17
(dp595
sg19
(S'self'
p596
S'text'
p597
tp598
sg23
(dp599
g597
(NNNtp600
sg596
(NNNtp601
ssg27
g28
sg29
S''
sg30
g589
sg31
g7
sg32
g33
sg34
(dp602
sg36
g592
sg37
g593
sg38
S''
sbsS'do_raw_aromatic'
p603
(ihappydoclib.parseinfo.functioninfo
FunctionInfo
p604
(dp605
g4
((dp606
(dp607
tp608
sg17
(dp609
sg19
(S'self'
p610
S'text'
p611
tp612
sg23
(dp613
g611
(NNNtp614
sg610
(NNNtp615
ssg27
g28
sg29
S''
sg30
g603
sg31
g7
sg32
g33
sg34
(dp616
sg36
g606
sg37
g607
sg38
S''
sbsS'do_valence'
p617
(ihappydoclib.parseinfo.functioninfo
FunctionInfo
p618
(dp619
g4
((dp620
(dp621
tp622
sg17
(dp623
sg19
(S'self'
p624
S'text'
p625
tp626
sg23
(dp627
g625
(NNNtp628
sg624
(NNNtp629
ssg27
g28
sg29
S''
sg30
g617
sg31
g7
sg32
g33
sg34
(dp630
sg36
g620
sg37
g621
sg38
S''
sbsS'do_close_recursive_smarts'
p631
(ihappydoclib.parseinfo.functioninfo
FunctionInfo
p632
(dp633
g4
((dp634
(dp635
tp636
sg17
(dp637
sg19
(S'self'
p638
S'text'
p639
tp640
sg23
(dp641
g639
(NNNtp642
sg638
(NNNtp643
ssg27
g28
sg29
S''
sg30
g631
sg31
g7
sg32
g33
sg34
(dp644
sg36
g634
sg37
g635
sg38
S''
sbsS'do_positive_symbols'
p645
(ihappydoclib.parseinfo.functioninfo
FunctionInfo
p646
(dp647
g4
((dp648
(dp649
tp650
sg17
(dp651
sg19
(S'self'
p652
S'text'
p653
tp654
sg23
(dp655
g653
(NNNtp656
sg652
(NNNtp657
ssg27
g28
sg29
S''
sg30
g645
sg31
g7
sg32
g33
sg34
(dp658
sg36
g648
sg37
g649
sg38
S''
sbsS'do_negative_symbols'
p659
(ihappydoclib.parseinfo.functioninfo
FunctionInfo
p660
(dp661
g4
((dp662
(dp663
tp664
sg17
(dp665
sg19
(S'self'
p666
S'text'
p667
tp668
sg23
(dp669
g667
(NNNtp670
sg666
(NNNtp671
ssg27
g28
sg29
S''
sg30
g659
sg31
g7
sg32
g33
sg34
(dp672
sg36
g662
sg37
g663
sg38
S''
sbsS'do_open_branch'
p673
(ihappydoclib.parseinfo.functioninfo
FunctionInfo
p674
(dp675
g4
((dp676
(dp677
tp678
sg17
(dp679
sg19
(S'self'
p680
S'text'
p681
tp682
sg23
(dp683
g681
(NNNtp684
sg680
(NNNtp685
ssg27
g28
sg29
S''
sg30
g673
sg31
g7
sg32
g33
sg34
(dp686
sg36
g676
sg37
g677
sg38
S''
sbsS'_reset'
p687
(ihappydoclib.parseinfo.functioninfo
FunctionInfo
p688
(dp689
g4
((dp690
(dp691
tp692
sg17
(dp693
sg19
(S'self'
p694
tp695
sg23
(dp696
g694
(NNNtp697
ssg27
g28
sg29
S''
sg30
g687
sg31
g7
sg32
g33
sg34
(dp698
sg36
g690
sg37
g691
sg38
S''
sbsS'add_atom'
p699
(ihappydoclib.parseinfo.functioninfo
FunctionInfo
p700
(dp701
g4
((dp702
(dp703
tp704
sg17
(dp705
sg19
(S'self'
p706
S'atom'
p707
tp708
sg23
(dp709
g706
(NNNtp710
sg707
(NNNtp711
ssg27
g28
sg29
S''
sg30
g699
sg31
g7
sg32
g33
sg34
(dp712
sg36
g702
sg37
g703
sg38
S''
sbstp713
sg27
g28
sg29
S''
sS'_class_member_info'
p714
(lp715
S'_save_state'
p716
asg30
g6
sg31
g2
sg32
g33
sS'_base_class_info'
p717
(lp718
S'Handler.TokenHandler'
p719
asg34
(dp720
sg36
g9
sg37
g10
sg38
S''
sbs(dp721
S'compile'
p722
(ihappydoclib.parseinfo.functioninfo
FunctionInfo
p723
(dp724
g4
((dp725
(dp726
tp727
sg17
(dp728
sg19
(S'smarts_pattern'
p729
tp730
sg23
(dp731
g729
(NNNtp732
ssg27
g28
sg29
S''
sg30
g722
sg31
g2
sg32
g33
sg34
(dp733
sg36
g725
sg37
g726
sg38
S''
sbsS'test'
p734
(ihappydoclib.parseinfo.functioninfo
FunctionInfo
p735
(dp736
g4
((dp737
(dp738
tp739
sg17
(dp740
sg19
(tsg23
(dp741
sg27
g28
sg29
S''
sg30
g734
sg31
g2
sg32
g33
sg34
(dp742
sg36
g737
sg37
g738
sg38
S''
sbsS'normalize_closure'
p743
(ihappydoclib.parseinfo.functioninfo
FunctionInfo
p744
(dp745
g4
((dp746
(dp747
tp748
sg17
(dp749
sg19
(S'text'
p750
tp751
sg23
(dp752
g750
(NNNtp753
ssg27
g28
sg29
S''
sg30
g743
sg31
g2
sg32
g33
sg34
(dp754
sg36
g746
sg37
g747
sg38
S''
sbsS'get_symbol_aromatic'
p755
(ihappydoclib.parseinfo.functioninfo
FunctionInfo
p756
(dp757
g4
((dp758
(dp759
tp760
sg17
(dp761
sg19
(S'text'
p762
tp763
sg23
(dp764
g762
(NNNtp765
ssg27
g28
sg29
S''
sg30
g755
sg31
g2
sg32
g33
sg34
(dp766
sg36
g758
sg37
g759
sg38
S''
sbstp767
sS'_import_info'
p768
(ihappydoclib.parseinfo.imports
ImportInfo
p769
(dp770
S'_named_imports'
p771
(dp772
S'frowns.smiles_parsers'
p773
(lp774
S'Smarts'
p775
aS'Handler'
p776
asS'SmartsMatcher'
p777
(lp778
S'Matcher'
p779
asS'Expressions'
p780
(lp781
S'*'
asS'Primitives'
p782
(lp783
S'*'
asS'Pattern'
p784
(lp785
S'*'
assS'_straight_imports'
p786
(lp787
S'string'
p788
asbsg27
g28
sg29
S''
sg30
S'Compiler'
p789
sg31
Nsg32
g33
sg34
(dp790
S'include_comments'
p791
I1
sS'cacheFilePrefix'
p792
S'.happydoc.'
p793
sS'useCache'
p794
I1
sS'docStringFormat'
p795
S'StructuredText'
p796
ssg36
g5
sg37
g721
sg38
S''
sbt.