(S'fc587a2d9279cedec51219bc20a7022b'
p1
(ihappydoclib.parseinfo.moduleinfo
ModuleInfo
p2
(dp3
S'_namespaces'
p4
((dp5
S'BondExpression'
p6
(ihappydoclib.parseinfo.classinfo
ClassInfo
p7
(dp8
g4
((dp9
(dp10
tp11
sS'_filename'
p12
S'../python/frowns/Smarts/Expressions.py'
p13
sS'_docstring'
p14
S''
sS'_class_member_info'
p15
(lp16
sS'_name'
p17
g6
sS'_parent'
p18
g2
sS'_comment_info'
p19
(dp20
sS'_base_class_info'
p21
(lp22
S'ExpressionList'
p23
asS'_configuration_values'
p24
(dp25
sS'_class_info'
p26
g9
sS'_function_info'
p27
g10
sS'_comments'
p28
S''
sbsS'NotMatch'
p29
(ihappydoclib.parseinfo.classinfo
ClassInfo
p30
(dp31
g4
((dp32
(dp33
S'__str__'
p34
(ihappydoclib.parseinfo.functioninfo
FunctionInfo
p35
(dp36
g4
((dp37
(dp38
tp39
sS'_exception_info'
p40
(dp41
sS'_parameter_names'
p42
(S'self'
p43
tp44
sS'_parameter_info'
p45
(dp46
g43
(NNNtp47
ssg12
g13
sg14
S''
sg17
g34
sg18
g30
sg19
g20
sg24
(dp48
sg26
g37
sg27
g38
sg28
S''
sbsS'__eq__'
p49
(ihappydoclib.parseinfo.functioninfo
FunctionInfo
p50
(dp51
g4
((dp52
(dp53
tp54
sg40
(dp55
sg42
(S'self'
p56
S'obj'
p57
tp58
sg45
(dp59
g56
(NNNtp60
sg57
(NNNtp61
ssg12
g13
sg14
S''
sg17
g49
sg18
g30
sg19
g20
sg24
(dp62
sg26
g52
sg27
g53
sg28
S''
sbsS'__init__'
p63
(ihappydoclib.parseinfo.functioninfo
FunctionInfo
p64
(dp65
g4
((dp66
(dp67
tp68
sg40
(dp69
sg42
(S'self'
p70
S'child'
p71
tp72
sg45
(dp73
g70
(NNNtp74
sg71
(NNNtp75
ssg12
g13
sg14
S''
sg17
g63
sg18
g30
sg19
g20
sg24
(dp76
sg26
g66
sg27
g67
sg28
S''
sbstp77
sg12
g13
sg14
S''
sg15
(lp78
sg17
g29
sg18
g2
sg19
g20
sg21
(lp79
sg24
(dp80
sg26
g32
sg27
g33
sg28
S''
sbsS'AtomExpression'
p81
(ihappydoclib.parseinfo.classinfo
ClassInfo
p82
(dp83
g4
((dp84
(dp85
tp86
sg12
g13
sg14
S''
sg15
(lp87
sg17
g81
sg18
g2
sg19
g20
sg21
(lp88
S'ExpressionList'
p89
asg24
(dp90
sg26
g84
sg27
g85
sg28
S''
sbsS'OrMatch'
p91
(ihappydoclib.parseinfo.classinfo
ClassInfo
p92
(dp93
g4
((dp94
(dp95
S'__str__'
p96
(ihappydoclib.parseinfo.functioninfo
FunctionInfo
p97
(dp98
g4
((dp99
(dp100
tp101
sg40
(dp102
sg42
(S'self'
p103
tp104
sg45
(dp105
g103
(NNNtp106
ssg12
g13
sg14
S''
sg17
g96
sg18
g92
sg19
g20
sg24
(dp107
sg26
g99
sg27
g100
sg28
S''
sbsS'__eq__'
p108
(ihappydoclib.parseinfo.functioninfo
FunctionInfo
p109
(dp110
g4
((dp111
(dp112
tp113
sg40
(dp114
sg42
(S'self'
p115
S'obj'
p116
tp117
sg45
(dp118
g115
(NNNtp119
sg116
(NNNtp120
ssg12
g13
sg14
S''
sg17
g108
sg18
g92
sg19
g20
sg24
(dp121
sg26
g111
sg27
g112
sg28
S''
sbsS'__init__'
p122
(ihappydoclib.parseinfo.functioninfo
FunctionInfo
p123
(dp124
g4
((dp125
(dp126
tp127
sg40
(dp128
sg42
(S'self'
p129
S'left'
p130
S'right'
p131
tp132
sg45
(dp133
g129
(NNNtp134
sg131
(NNNtp135
sg130
(NNNtp136
ssg12
g13
sg14
S''
sg17
g122
sg18
g92
sg19
g20
sg24
(dp137
sg26
g125
sg27
g126
sg28
S''
sbstp138
sg12
g13
sg14
S''
sg15
(lp139
sg17
g91
sg18
g2
sg19
g20
sg21
(lp140
sg24
(dp141
sg26
g94
sg27
g95
sg28
S''
sbsS'AndMatch'
p142
(ihappydoclib.parseinfo.classinfo
ClassInfo
p143
(dp144
g4
((dp145
(dp146
S'__str__'
p147
(ihappydoclib.parseinfo.functioninfo
FunctionInfo
p148
(dp149
g4
((dp150
(dp151
tp152
sg40
(dp153
sg42
(S'self'
p154
tp155
sg45
(dp156
g154
(NNNtp157
ssg12
g13
sg14
S''
sg17
g147
sg18
g143
sg19
g20
sg24
(dp158
sg26
g150
sg27
g151
sg28
S''
sbsS'__eq__'
p159
(ihappydoclib.parseinfo.functioninfo
FunctionInfo
p160
(dp161
g4
((dp162
(dp163
tp164
sg40
(dp165
sg42
(S'self'
p166
S'obj'
p167
tp168
sg45
(dp169
g166
(NNNtp170
sg167
(NNNtp171
ssg12
g13
sg14
S''
sg17
g159
sg18
g143
sg19
g20
sg24
(dp172
sg26
g162
sg27
g163
sg28
S''
sbsS'__init__'
p173
(ihappydoclib.parseinfo.functioninfo
FunctionInfo
p174
(dp175
g4
((dp176
(dp177
tp178
sg40
(dp179
sg42
(S'self'
p180
S'left'
p181
S'right'
p182
tp183
sg45
(dp184
g180
(NNNtp185
sg182
(NNNtp186
sg181
(NNNtp187
ssg12
g13
sg14
S''
sg17
g173
sg18
g143
sg19
g20
sg24
(dp188
sg26
g176
sg27
g177
sg28
S''
sbstp189
sg12
g13
sg14
S''
sg15
(lp190
sg17
g142
sg18
g2
sg19
g20
sg21
(lp191
sg24
(dp192
sg26
g145
sg27
g146
sg28
S''
sbsS'ExpressionList'
p193
(ihappydoclib.parseinfo.classinfo
ClassInfo
p194
(dp195
g4
((dp196
(dp197
S'add_operator'
p198
(ihappydoclib.parseinfo.functioninfo
FunctionInfo
p199
(dp200
g4
((dp201
(dp202
tp203
sg40
(dp204
sg42
(S'self'
p205
S'op'
p206
tp207
sg45
(dp208
g205
(NNNtp209
sg206
(NNNtp210
ssg12
g13
sg14
S''
sg17
g198
sg18
g194
sg19
g20
sg24
(dp211
sg26
g201
sg27
g202
sg28
S''
sbsS'add_matcher'
p212
(ihappydoclib.parseinfo.functioninfo
FunctionInfo
p213
(dp214
g4
((dp215
(dp216
tp217
sg40
(dp218
sg42
(S'self'
p219
S'obj'
p220
tp221
sg45
(dp222
g219
(NNNtp223
sg220
(NNNtp224
ssg12
g13
sg14
S''
sg17
g212
sg18
g194
sg19
g20
sg24
(dp225
sg26
g215
sg27
g216
sg28
S''
sbsS'__nonzero__'
p226
(ihappydoclib.parseinfo.functioninfo
FunctionInfo
p227
(dp228
g4
((dp229
(dp230
tp231
sg40
(dp232
sg42
(S'self'
p233
tp234
sg45
(dp235
g233
(NNNtp236
ssg12
g13
sg14
S''
sg17
g226
sg18
g194
sg19
g20
sg24
(dp237
sg26
g229
sg27
g230
sg28
S''
sbsS'__init__'
p238
(ihappydoclib.parseinfo.functioninfo
FunctionInfo
p239
(dp240
g4
((dp241
(dp242
tp243
sg40
(dp244
sg42
(S'self'
p245
tp246
sg45
(dp247
g245
(NNNtp248
ssg12
g13
sg14
S''
sg17
g238
sg18
g194
sg19
g20
sg24
(dp249
sg26
g241
sg27
g242
sg28
S''
sbsS'make_matcher'
p250
(ihappydoclib.parseinfo.functioninfo
FunctionInfo
p251
(dp252
g4
((dp253
(dp254
tp255
sg40
(dp256
sg42
(S'self'
p257
tp258
sg45
(dp259
g257
(NNNtp260
ssg12
g13
sg14
S''
sg17
g250
sg18
g194
sg19
g20
sg24
(dp261
sg26
g253
sg27
g254
sg28
S''
sbstp262
sg12
g13
sg14
S''
sg15
(lp263
sg17
g193
sg18
g2
sg19
g20
sg21
(lp264
sg24
(dp265
sg26
g196
sg27
g197
sg28
S''
sbs(dp266
tp267
sS'_import_info'
p268
(ihappydoclib.parseinfo.imports
ImportInfo
p269
(dp270
S'_named_imports'
p271
(dp272
sS'_straight_imports'
p273
(lp274
sbsg12
g13
sg14
S'"""A set of objects that can create logical expressions via\ncombining logical operators and Smarts Primitives.\n"""'
p275
sg17
S'Expressions'
p276
sg18
Nsg19
g20
sg24
(dp277
S'include_comments'
p278
I1
sS'cacheFilePrefix'
p279
S'.happydoc.'
p280
sS'useCache'
p281
I1
sS'docStringFormat'
p282
S'StructuredText'
p283
ssg26
g5
sg27
g266
sg28
S''
sbt.