(S'0944451bd301bb4eaa393ea2b50a396c'
p1
(ihappydoclib.parseinfo.moduleinfo
ModuleInfo
p2
(dp3
S'_namespaces'
p4
((dp5
S'SmartsPattern'
p6
(ihappydoclib.parseinfo.classinfo
ClassInfo
p7
(dp8
g4
((dp9
(dp10
S'__del__'
p11
(ihappydoclib.parseinfo.functioninfo
FunctionInfo
p12
(dp13
g4
((dp14
(dp15
tp16
sS'_exception_info'
p17
(dp18
sS'_parameter_names'
p19
(S'self'
p20
tp21
sS'_parameter_info'
p22
(dp23
g20
(NNNtp24
ssS'_filename'
p25
S'../python/frowns/Smarts/Pattern.py'
p26
sS'_docstring'
p27
S''
sS'_name'
p28
g11
sS'_parent'
p29
g7
sS'_comment_info'
p30
(dp31
sS'_configuration_values'
p32
(dp33
sS'_class_info'
p34
g14
sS'_function_info'
p35
g15
sS'_comments'
p36
S''
sbsS'dump'
p37
(ihappydoclib.parseinfo.functioninfo
FunctionInfo
p38
(dp39
g4
((dp40
(dp41
tp42
sg17
(dp43
sg19
(S'self'
p44
tp45
sg22
(dp46
g44
(NNNtp47
ssg25
g26
sg27
S''
sg28
g37
sg29
g7
sg30
g31
sg32
(dp48
sg34
g40
sg35
g41
sg36
S''
sbsS'__init__'
p49
(ihappydoclib.parseinfo.functioninfo
FunctionInfo
p50
(dp51
g4
((dp52
(dp53
tp54
sg17
(dp55
sg19
(S'self'
p56
tp57
sg22
(dp58
g56
(NNNtp59
ssg25
g26
sg27
S''
sg28
g49
sg29
g7
sg30
g31
sg32
(dp60
sg34
g52
sg35
g53
sg36
S''
sbstp61
sg25
g26
sg27
S''
sS'_class_member_info'
p62
(lp63
sg28
g6
sg29
g2
sg30
g31
sS'_base_class_info'
p64
(lp65
sg32
(dp66
sg34
g9
sg35
g10
sg36
S''
sbsS'Bond'
p67
(ihappydoclib.parseinfo.classinfo
ClassInfo
p68
(dp69
g4
((dp70
(dp71
S'dump_info'
p72
(ihappydoclib.parseinfo.functioninfo
FunctionInfo
p73
(dp74
g4
((dp75
(dp76
tp77
sg17
(dp78
sg19
(S'self'
p79
S'atoms'
p80
tp81
sg22
(dp82
g79
(NNNtp83
sg80
(NNNtp84
ssg25
g26
sg27
S''
sg28
g72
sg29
g68
sg30
g31
sg32
(dp85
sg34
g75
sg35
g76
sg36
S''
sbsS'__eq__'
p86
(ihappydoclib.parseinfo.functioninfo
FunctionInfo
p87
(dp88
g4
((dp89
(dp90
tp91
sg17
(dp92
sg19
(S'self'
p93
S'bond'
p94
tp95
sg22
(dp96
g93
(NNNtp97
sg94
(NNNtp98
ssg25
g26
sg27
S''
sg28
g86
sg29
g68
sg30
g31
sg32
(dp99
sg34
g89
sg35
g90
sg36
S''
sbsS'__init__'
p100
(ihappydoclib.parseinfo.functioninfo
FunctionInfo
p101
(dp102
g4
((dp103
(dp104
tp105
sg17
(dp106
sg19
(S'self'
p107
S'matcher'
p108
S'component_number'
p109
S'generator'
p110
tp111
sg22
(dp112
g108
(NNNtp113
sg107
(NNNtp114
sg109
(NNNtp115
sg110
(I1
S'defaultGenerator'
Ntp116
ssg25
g26
sg27
S''
sg28
g100
sg29
g68
sg30
g31
sg32
(dp117
sg34
g103
sg35
g104
sg36
S''
sbstp118
sg25
g26
sg27
S''
sg62
(lp119
sg28
g67
sg29
g2
sg30
g31
sg64
(lp120
sg32
(dp121
sg34
g70
sg35
g71
sg36
S''
sbsS'Atom'
p122
(ihappydoclib.parseinfo.classinfo
ClassInfo
p123
(dp124
g4
((dp125
(dp126
S'dump_info'
p127
(ihappydoclib.parseinfo.functioninfo
FunctionInfo
p128
(dp129
g4
((dp130
(dp131
tp132
sg17
(dp133
sg19
(S'self'
p134
S'bonds'
p135
tp136
sg22
(dp137
g134
(NNNtp138
sg135
(NNNtp139
ssg25
g26
sg27
S''
sg28
g127
sg29
g123
sg30
g31
sg32
(dp140
sg34
g130
sg35
g131
sg36
S''
sbsS'__eq__'
p141
(ihappydoclib.parseinfo.functioninfo
FunctionInfo
p142
(dp143
g4
((dp144
(dp145
tp146
sg17
(dp147
sg19
(S'self'
p148
S'atom'
p149
tp150
sg22
(dp151
g148
(NNNtp152
sg149
(NNNtp153
ssg25
g26
sg27
S''
sg28
g141
sg29
g123
sg30
g31
sg32
(dp154
sg34
g144
sg35
g145
sg36
S''
sbsS'__init__'
p155
(ihappydoclib.parseinfo.functioninfo
FunctionInfo
p156
(dp157
g4
((dp158
(dp159
tp160
sg17
(dp161
sg19
(S'self'
p162
S'matcher'
p163
S'component_number'
p164
S'generator'
p165
tp166
sg22
(dp167
g163
(NNNtp168
sg162
(NNNtp169
sg164
(NNNtp170
sg165
(I1
S'defaultGenerator'
Ntp171
ssg25
g26
sg27
S''
sg28
g155
sg29
g123
sg30
g31
sg32
(dp172
sg34
g158
sg35
g159
sg36
S''
sbstp173
sg25
g26
sg27
S''
sg62
(lp174
sg28
g122
sg29
g2
sg30
g31
sg64
(lp175
sg32
(dp176
sg34
g125
sg35
g126
sg36
S''
sbs(dp177
tp178
sS'_import_info'
p179
(ihappydoclib.parseinfo.imports
ImportInfo
p180
(dp181
S'_named_imports'
p182
(dp183
S'frowns.IdGenerator'
p184
(lp185
S'defaultGenerator'
p186
assS'_straight_imports'
p187
(lp188
S'string'
p189
asbsg25
g26
sg27
S''
sg28
S'Pattern'
p190
sg29
Nsg30
g31
sg32
(dp191
S'include_comments'
p192
I1
sS'cacheFilePrefix'
p193
S'.happydoc.'
p194
sS'useCache'
p195
I1
sS'docStringFormat'
p196
S'StructuredText'
p197
ssg34
g5
sg35
g177
sg36
S''
sbt.